
GccApplication1.elf:     file format elf32-avr

Sections:
Idx Name          Size      VMA       LMA       File off  Algn
  0 .data         0000049c  00800100  00000e00  00000e94  2**0
                  CONTENTS, ALLOC, LOAD, DATA
  1 .text         00000e00  00000000  00000000  00000094  2**1
                  CONTENTS, ALLOC, LOAD, READONLY, CODE
  2 .bss          00000258  0080059c  0080059c  00001330  2**0
                  ALLOC
  3 .comment      00000030  00000000  00000000  00001330  2**0
                  CONTENTS, READONLY
  4 .note.gnu.avr.deviceinfo 00000040  00000000  00000000  00001360  2**2
                  CONTENTS, READONLY
  5 .debug_aranges 00000268  00000000  00000000  000013a0  2**0
                  CONTENTS, READONLY, DEBUGGING
  6 .debug_info   00001dd5  00000000  00000000  00001608  2**0
                  CONTENTS, READONLY, DEBUGGING
  7 .debug_abbrev 00000c38  00000000  00000000  000033dd  2**0
                  CONTENTS, READONLY, DEBUGGING
  8 .debug_line   000012ba  00000000  00000000  00004015  2**0
                  CONTENTS, READONLY, DEBUGGING
  9 .debug_frame  00000618  00000000  00000000  000052d0  2**2
                  CONTENTS, READONLY, DEBUGGING
 10 .debug_str    000009f0  00000000  00000000  000058e8  2**0
                  CONTENTS, READONLY, DEBUGGING
 11 .debug_loc    00000c87  00000000  00000000  000062d8  2**0
                  CONTENTS, READONLY, DEBUGGING
 12 .debug_ranges 00000218  00000000  00000000  00006f5f  2**0
                  CONTENTS, READONLY, DEBUGGING

Disassembly of section .text:

00000000 <__vectors>:
   0:	0c 94 3b 00 	jmp	0x76	; 0x76 <__ctors_end>
   4:	0c 94 58 00 	jmp	0xb0	; 0xb0 <__bad_interrupt>
   8:	0c 94 58 00 	jmp	0xb0	; 0xb0 <__bad_interrupt>
   c:	0c 94 58 00 	jmp	0xb0	; 0xb0 <__bad_interrupt>
  10:	0c 94 58 00 	jmp	0xb0	; 0xb0 <__bad_interrupt>
  14:	0c 94 58 00 	jmp	0xb0	; 0xb0 <__bad_interrupt>
  18:	0c 94 58 00 	jmp	0xb0	; 0xb0 <__bad_interrupt>
  1c:	0c 94 58 00 	jmp	0xb0	; 0xb0 <__bad_interrupt>
  20:	0c 94 58 00 	jmp	0xb0	; 0xb0 <__bad_interrupt>
  24:	0c 94 58 00 	jmp	0xb0	; 0xb0 <__bad_interrupt>
  28:	0c 94 58 00 	jmp	0xb0	; 0xb0 <__bad_interrupt>
  2c:	0c 94 58 00 	jmp	0xb0	; 0xb0 <__bad_interrupt>
  30:	0c 94 58 00 	jmp	0xb0	; 0xb0 <__bad_interrupt>
  34:	0c 94 58 00 	jmp	0xb0	; 0xb0 <__bad_interrupt>
  38:	0c 94 39 03 	jmp	0x672	; 0x672 <__vector_14>
  3c:	0c 94 58 00 	jmp	0xb0	; 0xb0 <__bad_interrupt>
  40:	0c 94 58 00 	jmp	0xb0	; 0xb0 <__bad_interrupt>
  44:	0c 94 58 00 	jmp	0xb0	; 0xb0 <__bad_interrupt>
  48:	0c 94 ff 05 	jmp	0xbfe	; 0xbfe <__vector_18>
  4c:	0c 94 cf 04 	jmp	0x99e	; 0x99e <__vector_19>
  50:	0c 94 58 00 	jmp	0xb0	; 0xb0 <__bad_interrupt>
  54:	0c 94 58 00 	jmp	0xb0	; 0xb0 <__bad_interrupt>
  58:	0c 94 58 00 	jmp	0xb0	; 0xb0 <__bad_interrupt>
  5c:	0c 94 58 00 	jmp	0xb0	; 0xb0 <__bad_interrupt>
  60:	0c 94 58 00 	jmp	0xb0	; 0xb0 <__bad_interrupt>
  64:	0c 94 58 00 	jmp	0xb0	; 0xb0 <__bad_interrupt>
  68:	88 02       	muls	r24, r24
  6a:	8a 02       	muls	r24, r26
  6c:	8c 02       	muls	r24, r28
  6e:	80 02       	muls	r24, r16
  70:	82 02       	muls	r24, r18
  72:	84 02       	muls	r24, r20
  74:	86 02       	muls	r24, r22

00000076 <__ctors_end>:
  76:	11 24       	eor	r1, r1
  78:	1f be       	out	0x3f, r1	; 63
  7a:	cf ef       	ldi	r28, 0xFF	; 255
  7c:	d8 e0       	ldi	r29, 0x08	; 8
  7e:	de bf       	out	0x3e, r29	; 62
  80:	cd bf       	out	0x3d, r28	; 61

00000082 <__do_copy_data>:
  82:	15 e0       	ldi	r17, 0x05	; 5
  84:	a0 e0       	ldi	r26, 0x00	; 0
  86:	b1 e0       	ldi	r27, 0x01	; 1
  88:	e0 e0       	ldi	r30, 0x00	; 0
  8a:	fe e0       	ldi	r31, 0x0E	; 14
  8c:	02 c0       	rjmp	.+4      	; 0x92 <__do_copy_data+0x10>
  8e:	05 90       	lpm	r0, Z+
  90:	0d 92       	st	X+, r0
  92:	ac 39       	cpi	r26, 0x9C	; 156
  94:	b1 07       	cpc	r27, r17
  96:	d9 f7       	brne	.-10     	; 0x8e <__do_copy_data+0xc>

00000098 <__do_clear_bss>:
  98:	27 e0       	ldi	r18, 0x07	; 7
  9a:	ac e9       	ldi	r26, 0x9C	; 156
  9c:	b5 e0       	ldi	r27, 0x05	; 5
  9e:	01 c0       	rjmp	.+2      	; 0xa2 <.do_clear_bss_start>

000000a0 <.do_clear_bss_loop>:
  a0:	1d 92       	st	X+, r1

000000a2 <.do_clear_bss_start>:
  a2:	a4 3f       	cpi	r26, 0xF4	; 244
  a4:	b2 07       	cpc	r27, r18
  a6:	e1 f7       	brne	.-8      	; 0xa0 <.do_clear_bss_loop>
  a8:	0e 94 69 03 	call	0x6d2	; 0x6d2 <main>
  ac:	0c 94 fe 06 	jmp	0xdfc	; 0xdfc <_exit>

000000b0 <__bad_interrupt>:
  b0:	0c 94 00 00 	jmp	0	; 0x0 <__vectors>

000000b4 <AUDIO_get_songs_menu>:
// @brief *resumen*
// @param  *parametrsoq que resumen*
// @return *lo que retorna*
unsigned int get_tempo() {
	return tempo;
}
  b4:	81 e0       	ldi	r24, 0x01	; 1
  b6:	91 e0       	ldi	r25, 0x01	; 1
  b8:	08 95       	ret

000000ba <set_song>:
  ba:	80 93 9c 05 	sts	0x059C, r24	; 0x80059c <__data_end>
  be:	e8 2f       	mov	r30, r24
  c0:	f0 e0       	ldi	r31, 0x00	; 0
  c2:	ee 0f       	add	r30, r30
  c4:	ff 1f       	adc	r31, r31
  c6:	e7 5f       	subi	r30, 0xF7	; 247
  c8:	fe 4f       	sbci	r31, 0xFE	; 254
  ca:	80 81       	ld	r24, Z
  cc:	91 81       	ldd	r25, Z+1	; 0x01
  ce:	90 93 9e 05 	sts	0x059E, r25	; 0x80059e <song+0x1>
  d2:	80 93 9d 05 	sts	0x059D, r24	; 0x80059d <song>
  d6:	08 95       	ret

000000d8 <set_duration_timer>:
  d8:	90 93 a6 05 	sts	0x05A6, r25	; 0x8005a6 <duration_timer+0x1>
  dc:	80 93 a5 05 	sts	0x05A5, r24	; 0x8005a5 <duration_timer>
  e0:	08 95       	ret

000000e2 <set_sound_playing>:
  e2:	90 93 a0 05 	sts	0x05A0, r25	; 0x8005a0 <sound_playing+0x1>
  e6:	80 93 9f 05 	sts	0x059F, r24	; 0x80059f <sound_playing>
  ea:	08 95       	ret

000000ec <get_duration_timer>:
  ec:	80 91 a5 05 	lds	r24, 0x05A5	; 0x8005a5 <duration_timer>
  f0:	90 91 a6 05 	lds	r25, 0x05A6	; 0x8005a6 <duration_timer+0x1>
  f4:	08 95       	ret

000000f6 <sound>:


// Saco el sonido por el PIN5 del PORTD: freq en Hz, dur en ms
void sound(unsigned int freq, unsigned int dur)
{
  f6:	9c 01       	movw	r18, r24
	while (sound_playing && song_playing);      // Si hay alg?n sonido presente, espero a que termine
  f8:	40 91 9f 05 	lds	r20, 0x059F	; 0x80059f <sound_playing>
  fc:	50 91 a0 05 	lds	r21, 0x05A0	; 0x8005a0 <sound_playing+0x1>
 100:	45 2b       	or	r20, r21
 102:	21 f0       	breq	.+8      	; 0x10c <sound+0x16>
 104:	90 91 00 01 	lds	r25, 0x0100	; 0x800100 <__DATA_REGION_ORIGIN__>
 108:	91 11       	cpse	r25, r1
 10a:	f6 cf       	rjmp	.-20     	; 0xf8 <sound+0x2>

	duration_timer = dur;       // Seteo el tiempo de duraci?n
 10c:	70 93 a6 05 	sts	0x05A6, r23	; 0x8005a6 <duration_timer+0x1>
 110:	60 93 a5 05 	sts	0x05A5, r22	; 0x8005a5 <duration_timer>

	// Activo la salida y configuro el timer para que genere la se?al de la frecuencia apropiada
	TCCR1A|=(1<<COM1A0);
 114:	e0 e8       	ldi	r30, 0x80	; 128
 116:	f0 e0       	ldi	r31, 0x00	; 0
 118:	80 81       	ld	r24, Z
 11a:	80 64       	ori	r24, 0x40	; 64
 11c:	80 83       	st	Z, r24

	// Actualizo el valor de OCR1A para que produzca la nota adecuada
	OCR1A=(8000000/(freq))-1;
 11e:	40 e0       	ldi	r20, 0x00	; 0
 120:	50 e0       	ldi	r21, 0x00	; 0
 122:	60 e0       	ldi	r22, 0x00	; 0
 124:	72 e1       	ldi	r23, 0x12	; 18
 126:	8a e7       	ldi	r24, 0x7A	; 122
 128:	90 e0       	ldi	r25, 0x00	; 0
 12a:	0e 94 91 06 	call	0xd22	; 0xd22 <__divmodsi4>
 12e:	21 50       	subi	r18, 0x01	; 1
 130:	31 09       	sbc	r19, r1
 132:	30 93 89 00 	sts	0x0089, r19	; 0x800089 <__TEXT_REGION_LENGTH__+0x7f8089>
 136:	20 93 88 00 	sts	0x0088, r18	; 0x800088 <__TEXT_REGION_LENGTH__+0x7f8088>

	sound_playing = 1;          // Activo el flag para avisar que hay una nota sonando
 13a:	81 e0       	ldi	r24, 0x01	; 1
 13c:	90 e0       	ldi	r25, 0x00	; 0
 13e:	90 93 a0 05 	sts	0x05A0, r25	; 0x8005a0 <sound_playing+0x1>
 142:	80 93 9f 05 	sts	0x059F, r24	; 0x80059f <sound_playing>
 146:	08 95       	ret

00000148 <stop_song>:
}

void stop_song()
{
	song_playing = 0;           // Activo el flag para avisar que hay una nota sonando
 148:	10 92 00 01 	sts	0x0100, r1	; 0x800100 <__DATA_REGION_ORIGIN__>
	sound_playing = 0;          // Activo el flag para avisar que hay una nota sonando
 14c:	10 92 a0 05 	sts	0x05A0, r1	; 0x8005a0 <sound_playing+0x1>
 150:	10 92 9f 05 	sts	0x059F, r1	; 0x80059f <sound_playing>
	TCCR1A&=~(1<<COM1A0);       // Desactivo la salida
 154:	e0 e8       	ldi	r30, 0x80	; 128
 156:	f0 e0       	ldi	r31, 0x00	; 0
 158:	80 81       	ld	r24, Z
 15a:	8f 7b       	andi	r24, 0xBF	; 191
 15c:	80 83       	st	Z, r24
 15e:	08 95       	ret

00000160 <play_song>:
}

// Esta funci?n reproduce una canci?n que se le pase en un string con formato RTTTL
void play_song()
{
 160:	ff 92       	push	r15
 162:	0f 93       	push	r16
 164:	cf 93       	push	r28
 166:	df 93       	push	r29
	song_playing = 1;
 168:	81 e0       	ldi	r24, 0x01	; 1
 16a:	80 93 00 01 	sts	0x0100, r24	; 0x800100 <__DATA_REGION_ORIGIN__>
	song = rtttl_library[current_song];
 16e:	e0 91 9c 05 	lds	r30, 0x059C	; 0x80059c <__data_end>
 172:	f0 e0       	ldi	r31, 0x00	; 0
 174:	ee 0f       	add	r30, r30
 176:	ff 1f       	adc	r31, r31
 178:	e7 5f       	subi	r30, 0xF7	; 247
 17a:	fe 4f       	sbci	r31, 0xFE	; 254
 17c:	80 81       	ld	r24, Z
 17e:	91 81       	ldd	r25, Z+1	; 0x01
 180:	90 93 9e 05 	sts	0x059E, r25	; 0x80059e <song+0x1>
 184:	80 93 9d 05 	sts	0x059D, r24	; 0x80059d <song>
	unsigned char temp_duration, temp_octave, current_note, dot_flag;
	unsigned int calc_duration;
	duration = 4;                 // Duraci?n est?ndar = 4/4 = 1 beat
 188:	84 e0       	ldi	r24, 0x04	; 4
 18a:	80 93 a4 05 	sts	0x05A4, r24	; 0x8005a4 <duration>
	tempo = 63;                   // Tempo est?ndar = 63 bpm
 18e:	8f e3       	ldi	r24, 0x3F	; 63
 190:	90 e0       	ldi	r25, 0x00	; 0
 192:	90 93 a3 05 	sts	0x05A3, r25	; 0x8005a3 <tempo+0x1>
 196:	80 93 a2 05 	sts	0x05A2, r24	; 0x8005a2 <tempo>
	octave = 6;                   // Octava est?ndar = 6th
 19a:	86 e0       	ldi	r24, 0x06	; 6
 19c:	80 93 a7 05 	sts	0x05A7, r24	; 0x8005a7 <octave>
	while (*song != ':' && song_playing) song++;  // Busca el primer ':'
 1a0:	05 c0       	rjmp	.+10     	; 0x1ac <play_song+0x4c>
 1a2:	31 96       	adiw	r30, 0x01	; 1
 1a4:	f0 93 9e 05 	sts	0x059E, r31	; 0x80059e <song+0x1>
 1a8:	e0 93 9d 05 	sts	0x059D, r30	; 0x80059d <song>
 1ac:	e0 91 9d 05 	lds	r30, 0x059D	; 0x80059d <song>
 1b0:	f0 91 9e 05 	lds	r31, 0x059E	; 0x80059e <song+0x1>
 1b4:	80 81       	ld	r24, Z
 1b6:	8a 33       	cpi	r24, 0x3A	; 58
 1b8:	21 f0       	breq	.+8      	; 0x1c2 <play_song+0x62>
 1ba:	80 91 00 01 	lds	r24, 0x0100	; 0x800100 <__DATA_REGION_ORIGIN__>
 1be:	81 11       	cpse	r24, r1
 1c0:	f0 cf       	rjmp	.-32     	; 0x1a2 <play_song+0x42>
	song++;                       // Saltea el primer ':'
 1c2:	31 96       	adiw	r30, 0x01	; 1
 1c4:	f0 93 9e 05 	sts	0x059E, r31	; 0x80059e <song+0x1>
 1c8:	e0 93 9d 05 	sts	0x059D, r30	; 0x80059d <song>
	while (*song!=':' && song_playing)            // Repite hasta encontrar ':'
 1cc:	51 c1       	rjmp	.+674    	; 0x470 <__EEPROM_REGION_LENGTH__+0x70>
	{
		if (*song == 'd')           // Entra si es el seteo de la duraci?n
 1ce:	84 36       	cpi	r24, 0x64	; 100
 1d0:	09 f0       	breq	.+2      	; 0x1d4 <play_song+0x74>
 1d2:	5c c0       	rjmp	.+184    	; 0x28c <play_song+0x12c>
		{
			duration = 0;             // Seteo la duraci?n en cero (temporalmente)
 1d4:	10 92 a4 05 	sts	0x05A4, r1	; 0x8005a4 <duration>
			song++;                   // Avanzo al pr?ximo caracter
 1d8:	31 96       	adiw	r30, 0x01	; 1
 1da:	f0 93 9e 05 	sts	0x059E, r31	; 0x80059e <song+0x1>
 1de:	e0 93 9d 05 	sts	0x059D, r30	; 0x80059d <song>
			while (*song == '=' && song_playing) song++;  // Salteo '='
 1e2:	05 c0       	rjmp	.+10     	; 0x1ee <play_song+0x8e>
 1e4:	31 96       	adiw	r30, 0x01	; 1
 1e6:	f0 93 9e 05 	sts	0x059E, r31	; 0x80059e <song+0x1>
 1ea:	e0 93 9d 05 	sts	0x059D, r30	; 0x80059d <song>
 1ee:	e0 91 9d 05 	lds	r30, 0x059D	; 0x80059d <song>
 1f2:	f0 91 9e 05 	lds	r31, 0x059E	; 0x80059e <song+0x1>
 1f6:	80 81       	ld	r24, Z
 1f8:	8d 33       	cpi	r24, 0x3D	; 61
 1fa:	51 f4       	brne	.+20     	; 0x210 <play_song+0xb0>
 1fc:	80 91 00 01 	lds	r24, 0x0100	; 0x800100 <__DATA_REGION_ORIGIN__>
 200:	81 11       	cpse	r24, r1
 202:	f0 cf       	rjmp	.-32     	; 0x1e4 <play_song+0x84>
 204:	05 c0       	rjmp	.+10     	; 0x210 <play_song+0xb0>
			while (*song == ' ' && song_playing) song++;  // Salteo los espacios
 206:	31 96       	adiw	r30, 0x01	; 1
 208:	f0 93 9e 05 	sts	0x059E, r31	; 0x80059e <song+0x1>
 20c:	e0 93 9d 05 	sts	0x059D, r30	; 0x80059d <song>
 210:	e0 91 9d 05 	lds	r30, 0x059D	; 0x80059d <song>
 214:	f0 91 9e 05 	lds	r31, 0x059E	; 0x80059e <song+0x1>
 218:	80 81       	ld	r24, Z
 21a:	80 32       	cpi	r24, 0x20	; 32
 21c:	21 f4       	brne	.+8      	; 0x226 <play_song+0xc6>
 21e:	90 91 00 01 	lds	r25, 0x0100	; 0x800100 <__DATA_REGION_ORIGIN__>
 222:	91 11       	cpse	r25, r1
 224:	f0 cf       	rjmp	.-32     	; 0x206 <play_song+0xa6>
			// Si el caracter es un n?mero, seteo la duraci?n
			if (*song>='0' && *song<='9') duration = *song - '0';
 226:	80 53       	subi	r24, 0x30	; 48
 228:	8a 30       	cpi	r24, 0x0A	; 10
 22a:	10 f4       	brcc	.+4      	; 0x230 <play_song+0xd0>
 22c:	80 93 a4 05 	sts	0x05A4, r24	; 0x8005a4 <duration>
			song++;                   // Avanzo al pr?ximo caracter
 230:	9f 01       	movw	r18, r30
 232:	2f 5f       	subi	r18, 0xFF	; 255
 234:	3f 4f       	sbci	r19, 0xFF	; 255
 236:	30 93 9e 05 	sts	0x059E, r19	; 0x80059e <song+0x1>
 23a:	20 93 9d 05 	sts	0x059D, r18	; 0x80059d <song>
			// Me fijo si el caracter es un n?mero, ya que la diraci?n puede ser de dos d?gitos de largo
			if (*song>='0' && *song<='9')
 23e:	81 81       	ldd	r24, Z+1	; 0x01
 240:	90 ed       	ldi	r25, 0xD0	; 208
 242:	98 0f       	add	r25, r24
 244:	9a 30       	cpi	r25, 0x0A	; 10
 246:	b8 f4       	brcc	.+46     	; 0x276 <play_song+0x116>
			{ // Multiplico duraci?n por 10 y le agrego el valor del caracter
				duration = duration*10 + (*song - '0');
 248:	90 91 a4 05 	lds	r25, 0x05A4	; 0x8005a4 <duration>
 24c:	99 0f       	add	r25, r25
 24e:	49 2f       	mov	r20, r25
 250:	44 0f       	add	r20, r20
 252:	44 0f       	add	r20, r20
 254:	94 0f       	add	r25, r20
 256:	89 0f       	add	r24, r25
 258:	80 53       	subi	r24, 0x30	; 48
 25a:	80 93 a4 05 	sts	0x05A4, r24	; 0x8005a4 <duration>
				song++;                 // Avanzo al pr?ximo caracter
 25e:	2f 5f       	subi	r18, 0xFF	; 255
 260:	3f 4f       	sbci	r19, 0xFF	; 255
 262:	30 93 9e 05 	sts	0x059E, r19	; 0x80059e <song+0x1>
 266:	20 93 9d 05 	sts	0x059D, r18	; 0x80059d <song>
 26a:	05 c0       	rjmp	.+10     	; 0x276 <play_song+0x116>
			}
			while (*song == ',' && song_playing) song++;  // Salteo ','
 26c:	31 96       	adiw	r30, 0x01	; 1
 26e:	f0 93 9e 05 	sts	0x059E, r31	; 0x80059e <song+0x1>
 272:	e0 93 9d 05 	sts	0x059D, r30	; 0x80059d <song>
 276:	e0 91 9d 05 	lds	r30, 0x059D	; 0x80059d <song>
 27a:	f0 91 9e 05 	lds	r31, 0x059E	; 0x80059e <song+0x1>
 27e:	80 81       	ld	r24, Z
 280:	8c 32       	cpi	r24, 0x2C	; 44
 282:	21 f4       	brne	.+8      	; 0x28c <play_song+0x12c>
 284:	80 91 00 01 	lds	r24, 0x0100	; 0x800100 <__DATA_REGION_ORIGIN__>
 288:	81 11       	cpse	r24, r1
 28a:	f0 cf       	rjmp	.-32     	; 0x26c <play_song+0x10c>
		}

		if (*song == 'o')           // Entra si es el seteo de la octava
 28c:	e0 91 9d 05 	lds	r30, 0x059D	; 0x80059d <song>
 290:	f0 91 9e 05 	lds	r31, 0x059E	; 0x80059e <song+0x1>
 294:	80 81       	ld	r24, Z
 296:	8f 36       	cpi	r24, 0x6F	; 111
 298:	09 f0       	breq	.+2      	; 0x29c <play_song+0x13c>
 29a:	44 c0       	rjmp	.+136    	; 0x324 <play_song+0x1c4>
		{
			octave = 0;               // Seteo la octava en cero (temporalmente)
 29c:	10 92 a7 05 	sts	0x05A7, r1	; 0x8005a7 <octave>
			song++;                   // Avanzo al pr?ximo caracter
 2a0:	31 96       	adiw	r30, 0x01	; 1
 2a2:	f0 93 9e 05 	sts	0x059E, r31	; 0x80059e <song+0x1>
 2a6:	e0 93 9d 05 	sts	0x059D, r30	; 0x80059d <song>
			while (*song == '=' && song_playing) song++;  // Salteo '='
 2aa:	05 c0       	rjmp	.+10     	; 0x2b6 <play_song+0x156>
 2ac:	31 96       	adiw	r30, 0x01	; 1
 2ae:	f0 93 9e 05 	sts	0x059E, r31	; 0x80059e <song+0x1>
 2b2:	e0 93 9d 05 	sts	0x059D, r30	; 0x80059d <song>
 2b6:	e0 91 9d 05 	lds	r30, 0x059D	; 0x80059d <song>
 2ba:	f0 91 9e 05 	lds	r31, 0x059E	; 0x80059e <song+0x1>
 2be:	80 81       	ld	r24, Z
 2c0:	8d 33       	cpi	r24, 0x3D	; 61
 2c2:	51 f4       	brne	.+20     	; 0x2d8 <play_song+0x178>
 2c4:	80 91 00 01 	lds	r24, 0x0100	; 0x800100 <__DATA_REGION_ORIGIN__>
 2c8:	81 11       	cpse	r24, r1
 2ca:	f0 cf       	rjmp	.-32     	; 0x2ac <play_song+0x14c>
 2cc:	05 c0       	rjmp	.+10     	; 0x2d8 <play_song+0x178>
			while (*song == ' ' && song_playing) song++;  // Salteo los espacios
 2ce:	31 96       	adiw	r30, 0x01	; 1
 2d0:	f0 93 9e 05 	sts	0x059E, r31	; 0x80059e <song+0x1>
 2d4:	e0 93 9d 05 	sts	0x059D, r30	; 0x80059d <song>
 2d8:	e0 91 9d 05 	lds	r30, 0x059D	; 0x80059d <song>
 2dc:	f0 91 9e 05 	lds	r31, 0x059E	; 0x80059e <song+0x1>
 2e0:	80 81       	ld	r24, Z
 2e2:	80 32       	cpi	r24, 0x20	; 32
 2e4:	21 f4       	brne	.+8      	; 0x2ee <play_song+0x18e>
 2e6:	90 91 00 01 	lds	r25, 0x0100	; 0x800100 <__DATA_REGION_ORIGIN__>
 2ea:	91 11       	cpse	r25, r1
 2ec:	f0 cf       	rjmp	.-32     	; 0x2ce <play_song+0x16e>
			// Si el caracter es un n?mero, seteo la octava
			if (*song>='0' && *song<='9') octave = *song - '0';
 2ee:	80 53       	subi	r24, 0x30	; 48
 2f0:	8a 30       	cpi	r24, 0x0A	; 10
 2f2:	10 f4       	brcc	.+4      	; 0x2f8 <play_song+0x198>
 2f4:	80 93 a7 05 	sts	0x05A7, r24	; 0x8005a7 <octave>
			song++;                   // Avanzo al pr?ximo caracter
 2f8:	31 96       	adiw	r30, 0x01	; 1
 2fa:	f0 93 9e 05 	sts	0x059E, r31	; 0x80059e <song+0x1>
 2fe:	e0 93 9d 05 	sts	0x059D, r30	; 0x80059d <song>
			while (*song == ',' && song_playing) song++;  // Salteo ','
 302:	05 c0       	rjmp	.+10     	; 0x30e <play_song+0x1ae>
 304:	31 96       	adiw	r30, 0x01	; 1
 306:	f0 93 9e 05 	sts	0x059E, r31	; 0x80059e <song+0x1>
 30a:	e0 93 9d 05 	sts	0x059D, r30	; 0x80059d <song>
 30e:	e0 91 9d 05 	lds	r30, 0x059D	; 0x80059d <song>
 312:	f0 91 9e 05 	lds	r31, 0x059E	; 0x80059e <song+0x1>
 316:	80 81       	ld	r24, Z
 318:	8c 32       	cpi	r24, 0x2C	; 44
 31a:	21 f4       	brne	.+8      	; 0x324 <play_song+0x1c4>
 31c:	80 91 00 01 	lds	r24, 0x0100	; 0x800100 <__DATA_REGION_ORIGIN__>
 320:	81 11       	cpse	r24, r1
 322:	f0 cf       	rjmp	.-32     	; 0x304 <play_song+0x1a4>
		}
		if (*song == 'b')           // Entra si es el seteo del tempo (beats por minuto)
 324:	e0 91 9d 05 	lds	r30, 0x059D	; 0x80059d <song>
 328:	f0 91 9e 05 	lds	r31, 0x059E	; 0x80059e <song+0x1>
 32c:	80 81       	ld	r24, Z
 32e:	82 36       	cpi	r24, 0x62	; 98
 330:	09 f0       	breq	.+2      	; 0x334 <play_song+0x1d4>
 332:	93 c0       	rjmp	.+294    	; 0x45a <__EEPROM_REGION_LENGTH__+0x5a>
		{
			tempo = 0;                // Seteo el tempo en cero (temporalmente)
 334:	10 92 a3 05 	sts	0x05A3, r1	; 0x8005a3 <tempo+0x1>
 338:	10 92 a2 05 	sts	0x05A2, r1	; 0x8005a2 <tempo>
			song++;                   // Avanzo al pr?ximo caracter
 33c:	31 96       	adiw	r30, 0x01	; 1
 33e:	f0 93 9e 05 	sts	0x059E, r31	; 0x80059e <song+0x1>
 342:	e0 93 9d 05 	sts	0x059D, r30	; 0x80059d <song>
			while (*song == '=' && song_playing) song++;  // Salteo '='
 346:	05 c0       	rjmp	.+10     	; 0x352 <play_song+0x1f2>
 348:	31 96       	adiw	r30, 0x01	; 1
 34a:	f0 93 9e 05 	sts	0x059E, r31	; 0x80059e <song+0x1>
 34e:	e0 93 9d 05 	sts	0x059D, r30	; 0x80059d <song>
 352:	e0 91 9d 05 	lds	r30, 0x059D	; 0x80059d <song>
 356:	f0 91 9e 05 	lds	r31, 0x059E	; 0x80059e <song+0x1>
 35a:	80 81       	ld	r24, Z
 35c:	8d 33       	cpi	r24, 0x3D	; 61
 35e:	51 f4       	brne	.+20     	; 0x374 <play_song+0x214>
 360:	80 91 00 01 	lds	r24, 0x0100	; 0x800100 <__DATA_REGION_ORIGIN__>
 364:	81 11       	cpse	r24, r1
 366:	f0 cf       	rjmp	.-32     	; 0x348 <play_song+0x1e8>
 368:	05 c0       	rjmp	.+10     	; 0x374 <play_song+0x214>
			while (*song == ' ' && song_playing) song++;  // Salteo los espacios
 36a:	31 96       	adiw	r30, 0x01	; 1
 36c:	f0 93 9e 05 	sts	0x059E, r31	; 0x80059e <song+0x1>
 370:	e0 93 9d 05 	sts	0x059D, r30	; 0x80059d <song>
 374:	e0 91 9d 05 	lds	r30, 0x059D	; 0x80059d <song>
 378:	f0 91 9e 05 	lds	r31, 0x059E	; 0x80059e <song+0x1>
 37c:	80 81       	ld	r24, Z
 37e:	80 32       	cpi	r24, 0x20	; 32
 380:	21 f4       	brne	.+8      	; 0x38a <play_song+0x22a>
 382:	90 91 00 01 	lds	r25, 0x0100	; 0x800100 <__DATA_REGION_ORIGIN__>
 386:	91 11       	cpse	r25, r1
 388:	f0 cf       	rjmp	.-32     	; 0x36a <play_song+0x20a>
			// Ahora leo el seteo del tempo (puede tener 3 d?gitos de largo)
			if (*song>='0' && *song<='9') tempo = *song - '0';
 38a:	90 ed       	ldi	r25, 0xD0	; 208
 38c:	98 0f       	add	r25, r24
 38e:	9a 30       	cpi	r25, 0x0A	; 10
 390:	30 f4       	brcc	.+12     	; 0x39e <play_song+0x23e>
 392:	90 e0       	ldi	r25, 0x00	; 0
 394:	c0 97       	sbiw	r24, 0x30	; 48
 396:	90 93 a3 05 	sts	0x05A3, r25	; 0x8005a3 <tempo+0x1>
 39a:	80 93 a2 05 	sts	0x05A2, r24	; 0x8005a2 <tempo>
			song++;                   // Avanzo al pr?ximo caracter
 39e:	df 01       	movw	r26, r30
 3a0:	11 96       	adiw	r26, 0x01	; 1
 3a2:	b0 93 9e 05 	sts	0x059E, r27	; 0x80059e <song+0x1>
 3a6:	a0 93 9d 05 	sts	0x059D, r26	; 0x80059d <song>
			if (*song>='0' && *song<='9')
 3aa:	41 81       	ldd	r20, Z+1	; 0x01
 3ac:	80 ed       	ldi	r24, 0xD0	; 208
 3ae:	84 0f       	add	r24, r20
 3b0:	8a 30       	cpi	r24, 0x0A	; 10
 3b2:	08 f0       	brcs	.+2      	; 0x3b6 <play_song+0x256>
 3b4:	41 c0       	rjmp	.+130    	; 0x438 <__EEPROM_REGION_LENGTH__+0x38>
			{
				tempo = tempo*10 + (*song - '0'); // El tempo tiene dos d?gitos
 3b6:	20 91 a2 05 	lds	r18, 0x05A2	; 0x8005a2 <tempo>
 3ba:	30 91 a3 05 	lds	r19, 0x05A3	; 0x8005a3 <tempo+0x1>
 3be:	c9 01       	movw	r24, r18
 3c0:	88 0f       	add	r24, r24
 3c2:	99 1f       	adc	r25, r25
 3c4:	22 0f       	add	r18, r18
 3c6:	33 1f       	adc	r19, r19
 3c8:	22 0f       	add	r18, r18
 3ca:	33 1f       	adc	r19, r19
 3cc:	22 0f       	add	r18, r18
 3ce:	33 1f       	adc	r19, r19
 3d0:	82 0f       	add	r24, r18
 3d2:	93 1f       	adc	r25, r19
 3d4:	84 0f       	add	r24, r20
 3d6:	91 1d       	adc	r25, r1
 3d8:	c0 97       	sbiw	r24, 0x30	; 48
 3da:	90 93 a3 05 	sts	0x05A3, r25	; 0x8005a3 <tempo+0x1>
 3de:	80 93 a2 05 	sts	0x05A2, r24	; 0x8005a2 <tempo>
				song++;                 // Avanzo al pr?ximo caracter
 3e2:	9d 01       	movw	r18, r26
 3e4:	2f 5f       	subi	r18, 0xFF	; 255
 3e6:	3f 4f       	sbci	r19, 0xFF	; 255
 3e8:	30 93 9e 05 	sts	0x059E, r19	; 0x80059e <song+0x1>
 3ec:	20 93 9d 05 	sts	0x059D, r18	; 0x80059d <song>
				if (*song>='0' && *song<='9')
 3f0:	11 96       	adiw	r26, 0x01	; 1
 3f2:	4c 91       	ld	r20, X
 3f4:	50 ed       	ldi	r21, 0xD0	; 208
 3f6:	54 0f       	add	r21, r20
 3f8:	5a 30       	cpi	r21, 0x0A	; 10
 3fa:	f0 f4       	brcc	.+60     	; 0x438 <__EEPROM_REGION_LENGTH__+0x38>
				{
					tempo = tempo*10 + (*song - '0'); // El tempo tiene tres d?gitos
 3fc:	bc 01       	movw	r22, r24
 3fe:	66 0f       	add	r22, r22
 400:	77 1f       	adc	r23, r23
 402:	88 0f       	add	r24, r24
 404:	99 1f       	adc	r25, r25
 406:	88 0f       	add	r24, r24
 408:	99 1f       	adc	r25, r25
 40a:	88 0f       	add	r24, r24
 40c:	99 1f       	adc	r25, r25
 40e:	86 0f       	add	r24, r22
 410:	97 1f       	adc	r25, r23
 412:	84 0f       	add	r24, r20
 414:	91 1d       	adc	r25, r1
 416:	c0 97       	sbiw	r24, 0x30	; 48
 418:	90 93 a3 05 	sts	0x05A3, r25	; 0x8005a3 <tempo+0x1>
 41c:	80 93 a2 05 	sts	0x05A2, r24	; 0x8005a2 <tempo>
					song++;               // Avanzo al pr?ximo caracter
 420:	2f 5f       	subi	r18, 0xFF	; 255
 422:	3f 4f       	sbci	r19, 0xFF	; 255
 424:	30 93 9e 05 	sts	0x059E, r19	; 0x80059e <song+0x1>
 428:	20 93 9d 05 	sts	0x059D, r18	; 0x80059d <song>
 42c:	05 c0       	rjmp	.+10     	; 0x438 <__EEPROM_REGION_LENGTH__+0x38>
				}
			}
			while (*song == ',' && song_playing) song++;  // Salteo ','
 42e:	31 96       	adiw	r30, 0x01	; 1
 430:	f0 93 9e 05 	sts	0x059E, r31	; 0x80059e <song+0x1>
 434:	e0 93 9d 05 	sts	0x059D, r30	; 0x80059d <song>
 438:	e0 91 9d 05 	lds	r30, 0x059D	; 0x80059d <song>
 43c:	f0 91 9e 05 	lds	r31, 0x059E	; 0x80059e <song+0x1>
 440:	80 81       	ld	r24, Z
 442:	8c 32       	cpi	r24, 0x2C	; 44
 444:	51 f4       	brne	.+20     	; 0x45a <__EEPROM_REGION_LENGTH__+0x5a>
 446:	80 91 00 01 	lds	r24, 0x0100	; 0x800100 <__DATA_REGION_ORIGIN__>
 44a:	81 11       	cpse	r24, r1
 44c:	f0 cf       	rjmp	.-32     	; 0x42e <__EEPROM_REGION_LENGTH__+0x2e>
 44e:	05 c0       	rjmp	.+10     	; 0x45a <__EEPROM_REGION_LENGTH__+0x5a>
		}
		while (*song == ',' && song_playing) song++;    // Salteo ','
 450:	31 96       	adiw	r30, 0x01	; 1
 452:	f0 93 9e 05 	sts	0x059E, r31	; 0x80059e <song+0x1>
 456:	e0 93 9d 05 	sts	0x059D, r30	; 0x80059d <song>
 45a:	e0 91 9d 05 	lds	r30, 0x059D	; 0x80059d <song>
 45e:	f0 91 9e 05 	lds	r31, 0x059E	; 0x80059e <song+0x1>
 462:	80 81       	ld	r24, Z
 464:	8c 32       	cpi	r24, 0x2C	; 44
 466:	21 f4       	brne	.+8      	; 0x470 <__EEPROM_REGION_LENGTH__+0x70>
 468:	80 91 00 01 	lds	r24, 0x0100	; 0x800100 <__DATA_REGION_ORIGIN__>
 46c:	81 11       	cpse	r24, r1
 46e:	f0 cf       	rjmp	.-32     	; 0x450 <__EEPROM_REGION_LENGTH__+0x50>
	duration = 4;                 // Duraci?n est?ndar = 4/4 = 1 beat
	tempo = 63;                   // Tempo est?ndar = 63 bpm
	octave = 6;                   // Octava est?ndar = 6th
	while (*song != ':' && song_playing) song++;  // Busca el primer ':'
	song++;                       // Saltea el primer ':'
	while (*song!=':' && song_playing)            // Repite hasta encontrar ':'
 470:	e0 91 9d 05 	lds	r30, 0x059D	; 0x80059d <song>
 474:	f0 91 9e 05 	lds	r31, 0x059E	; 0x80059e <song+0x1>
 478:	80 81       	ld	r24, Z
 47a:	8a 33       	cpi	r24, 0x3A	; 58
 47c:	21 f0       	breq	.+8      	; 0x486 <__EEPROM_REGION_LENGTH__+0x86>
 47e:	90 91 00 01 	lds	r25, 0x0100	; 0x800100 <__DATA_REGION_ORIGIN__>
 482:	91 11       	cpse	r25, r1
 484:	a4 ce       	rjmp	.-696    	; 0x1ce <play_song+0x6e>
			}
			while (*song == ',' && song_playing) song++;  // Salteo ','
		}
		while (*song == ',' && song_playing) song++;    // Salteo ','
	}
	song++;                       // Avanzo al pr?ximo caracter
 486:	31 96       	adiw	r30, 0x01	; 1
 488:	f0 93 9e 05 	sts	0x059E, r31	; 0x80059e <song+0x1>
 48c:	e0 93 9d 05 	sts	0x059D, r30	; 0x80059d <song>
	// read the musical notes
	while (*song && song_playing)                 // Repito hasta que el caracter sea null
 490:	e0 c0       	rjmp	.+448    	; 0x652 <__EEPROM_REGION_LENGTH__+0x252>
	{
		current_note = 255;         // Nota por defecto = pausa
		temp_octave = octave;       // Seteo la octava a la por defecto de la canci?n
 492:	c0 91 a7 05 	lds	r28, 0x05A7	; 0x8005a7 <octave>
		temp_duration = duration;   // Seteo la duraci?n a la por defecto de la canci?n
 496:	00 91 a4 05 	lds	r16, 0x05A4	; 0x8005a4 <duration>
		dot_flag = 0;               // Borro el flag de detecci?n de punto
		// Busco un prefijo de duraci?n
		if (*song>='0' && *song<='9')
 49a:	80 53       	subi	r24, 0x30	; 48
 49c:	8a 30       	cpi	r24, 0x0A	; 10
 49e:	e0 f4       	brcc	.+56     	; 0x4d8 <__EEPROM_REGION_LENGTH__+0xd8>
		{
			temp_duration = *song - '0';
			song++;
 4a0:	af 01       	movw	r20, r30
 4a2:	4f 5f       	subi	r20, 0xFF	; 255
 4a4:	5f 4f       	sbci	r21, 0xFF	; 255
 4a6:	50 93 9e 05 	sts	0x059E, r21	; 0x80059e <song+0x1>
 4aa:	40 93 9d 05 	sts	0x059D, r20	; 0x80059d <song>
			if (*song>='0' && *song<='9')
 4ae:	91 81       	ldd	r25, Z+1	; 0x01
 4b0:	20 ed       	ldi	r18, 0xD0	; 208
 4b2:	29 0f       	add	r18, r25
 4b4:	2a 30       	cpi	r18, 0x0A	; 10
 4b6:	78 f4       	brcc	.+30     	; 0x4d6 <__EEPROM_REGION_LENGTH__+0xd6>
			{
				temp_duration = temp_duration*10 + (*song - '0');
 4b8:	88 0f       	add	r24, r24
 4ba:	08 2f       	mov	r16, r24
 4bc:	00 0f       	add	r16, r16
 4be:	00 0f       	add	r16, r16
 4c0:	80 0f       	add	r24, r16
 4c2:	08 2f       	mov	r16, r24
 4c4:	09 0f       	add	r16, r25
 4c6:	00 53       	subi	r16, 0x30	; 48
				song++;
 4c8:	4f 5f       	subi	r20, 0xFF	; 255
 4ca:	5f 4f       	sbci	r21, 0xFF	; 255
 4cc:	50 93 9e 05 	sts	0x059E, r21	; 0x80059e <song+0x1>
 4d0:	40 93 9d 05 	sts	0x059D, r20	; 0x80059d <song>
 4d4:	01 c0       	rjmp	.+2      	; 0x4d8 <__EEPROM_REGION_LENGTH__+0xd8>
		temp_duration = duration;   // Seteo la duraci?n a la por defecto de la canci?n
		dot_flag = 0;               // Borro el flag de detecci?n de punto
		// Busco un prefijo de duraci?n
		if (*song>='0' && *song<='9')
		{
			temp_duration = *song - '0';
 4d6:	08 2f       	mov	r16, r24
				temp_duration = temp_duration*10 + (*song - '0');
				song++;
			}
		}
		// Busco una nota
		switch (*song)
 4d8:	20 91 9d 05 	lds	r18, 0x059D	; 0x80059d <song>
 4dc:	30 91 9e 05 	lds	r19, 0x059E	; 0x80059e <song+0x1>
 4e0:	d9 01       	movw	r26, r18
 4e2:	ec 91       	ld	r30, X
 4e4:	8e 2f       	mov	r24, r30
 4e6:	90 e0       	ldi	r25, 0x00	; 0
 4e8:	fc 01       	movw	r30, r24
 4ea:	e1 56       	subi	r30, 0x61	; 97
 4ec:	f1 09       	sbc	r31, r1
 4ee:	e7 30       	cpi	r30, 0x07	; 7
 4f0:	f1 05       	cpc	r31, r1
 4f2:	20 f4       	brcc	.+8      	; 0x4fc <__EEPROM_REGION_LENGTH__+0xfc>
 4f4:	ec 5c       	subi	r30, 0xCC	; 204
 4f6:	ff 4f       	sbci	r31, 0xFF	; 255
 4f8:	0c 94 b0 06 	jmp	0xd60	; 0xd60 <__tablejump2__>
	}
	song++;                       // Avanzo al pr?ximo caracter
	// read the musical notes
	while (*song && song_playing)                 // Repito hasta que el caracter sea null
	{
		current_note = 255;         // Nota por defecto = pausa
 4fc:	df ef       	ldi	r29, 0xFF	; 255
 4fe:	0d c0       	rjmp	.+26     	; 0x51a <__EEPROM_REGION_LENGTH__+0x11a>
		}
		// Busco una nota
		switch (*song)
		{
			case 'c': current_note = 0; break;    // C (do)
			case 'd': current_note = 2; break;    // D (re)
 500:	d2 e0       	ldi	r29, 0x02	; 2
 502:	0b c0       	rjmp	.+22     	; 0x51a <__EEPROM_REGION_LENGTH__+0x11a>
			case 'e': current_note = 4; break;    // E (mi)
 504:	d4 e0       	ldi	r29, 0x04	; 4
 506:	09 c0       	rjmp	.+18     	; 0x51a <__EEPROM_REGION_LENGTH__+0x11a>
			case 'f': current_note = 5; break;    // F (fa)
 508:	d5 e0       	ldi	r29, 0x05	; 5
 50a:	07 c0       	rjmp	.+14     	; 0x51a <__EEPROM_REGION_LENGTH__+0x11a>
			case 'g': current_note = 7; break;    // G (sol)
 50c:	d7 e0       	ldi	r29, 0x07	; 7
 50e:	05 c0       	rjmp	.+10     	; 0x51a <__EEPROM_REGION_LENGTH__+0x11a>
			case 'a': current_note = 9; break;    // A (la)
 510:	d9 e0       	ldi	r29, 0x09	; 9
 512:	03 c0       	rjmp	.+6      	; 0x51a <__EEPROM_REGION_LENGTH__+0x11a>
			case 'b': current_note = 11; break;   // B (si)
 514:	db e0       	ldi	r29, 0x0B	; 11
 516:	01 c0       	rjmp	.+2      	; 0x51a <__EEPROM_REGION_LENGTH__+0x11a>
			}
		}
		// Busco una nota
		switch (*song)
		{
			case 'c': current_note = 0; break;    // C (do)
 518:	d0 e0       	ldi	r29, 0x00	; 0
			case 'g': current_note = 7; break;    // G (sol)
			case 'a': current_note = 9; break;    // A (la)
			case 'b': current_note = 11; break;   // B (si)
			case 'p': current_note = 255; break;  // pausa
		}
		song++;                     // Avanzo al pr?ximo caracter
 51a:	c9 01       	movw	r24, r18
 51c:	01 96       	adiw	r24, 0x01	; 1
 51e:	90 93 9e 05 	sts	0x059E, r25	; 0x80059e <song+0x1>
 522:	80 93 9d 05 	sts	0x059D, r24	; 0x80059d <song>
		// Busco un '#' siguiendo la nota
		if (*song=='#')
 526:	f9 01       	movw	r30, r18
 528:	21 81       	ldd	r18, Z+1	; 0x01
 52a:	23 32       	cpi	r18, 0x23	; 35
 52c:	31 f4       	brne	.+12     	; 0x53a <__EEPROM_REGION_LENGTH__+0x13a>
		{
			current_note++;   // Incremento la nota (A->A#, C->C#, D->D#, F->F#, G->G#)
 52e:	df 5f       	subi	r29, 0xFF	; 255
			song++;                   // Avanzo al pr?ximo caracter
 530:	01 96       	adiw	r24, 0x01	; 1
 532:	90 93 9e 05 	sts	0x059E, r25	; 0x80059e <song+0x1>
 536:	80 93 9d 05 	sts	0x059D, r24	; 0x80059d <song>




		// Busco '.' (extiende la duraci?n de la nota un 50%)
		if (*song=='.')
 53a:	e0 91 9d 05 	lds	r30, 0x059D	; 0x80059d <song>
 53e:	f0 91 9e 05 	lds	r31, 0x059E	; 0x80059e <song+0x1>
 542:	80 81       	ld	r24, Z
 544:	8e 32       	cpi	r24, 0x2E	; 46
 546:	41 f4       	brne	.+16     	; 0x558 <__EEPROM_REGION_LENGTH__+0x158>
		{
			dot_flag = 1;             // Si se encuentra '.', seteo el flag
			song++;                   // Avanzo al pr?ximo caracter
 548:	31 96       	adiw	r30, 0x01	; 1
 54a:	f0 93 9e 05 	sts	0x059E, r31	; 0x80059e <song+0x1>
 54e:	e0 93 9d 05 	sts	0x059D, r30	; 0x80059d <song>


		// Busco '.' (extiende la duraci?n de la nota un 50%)
		if (*song=='.')
		{
			dot_flag = 1;             // Si se encuentra '.', seteo el flag
 552:	ff 24       	eor	r15, r15
 554:	f3 94       	inc	r15
 556:	01 c0       	rjmp	.+2      	; 0x55a <__EEPROM_REGION_LENGTH__+0x15a>
	while (*song && song_playing)                 // Repito hasta que el caracter sea null
	{
		current_note = 255;         // Nota por defecto = pausa
		temp_octave = octave;       // Seteo la octava a la por defecto de la canci?n
		temp_duration = duration;   // Seteo la duraci?n a la por defecto de la canci?n
		dot_flag = 0;               // Borro el flag de detecci?n de punto
 558:	f1 2c       	mov	r15, r1
		{
			dot_flag = 1;             // Si se encuentra '.', seteo el flag
			song++;                   // Avanzo al pr?ximo caracter
		}
		// Busco un sufijo de una octava
		if (*song>='0' && *song<='9')
 55a:	e0 91 9d 05 	lds	r30, 0x059D	; 0x80059d <song>
 55e:	f0 91 9e 05 	lds	r31, 0x059E	; 0x80059e <song+0x1>
 562:	80 81       	ld	r24, Z
 564:	80 53       	subi	r24, 0x30	; 48
 566:	8a 30       	cpi	r24, 0x0A	; 10
 568:	30 f4       	brcc	.+12     	; 0x576 <__EEPROM_REGION_LENGTH__+0x176>
		{
			temp_octave = *song - '0';// Seteo la octava en consecuencia
			song++;                   // Avanzo al pr?ximo caracter
 56a:	31 96       	adiw	r30, 0x01	; 1
 56c:	f0 93 9e 05 	sts	0x059E, r31	; 0x80059e <song+0x1>
 570:	e0 93 9d 05 	sts	0x059D, r30	; 0x80059d <song>
			song++;                   // Avanzo al pr?ximo caracter
		}
		// Busco un sufijo de una octava
		if (*song>='0' && *song<='9')
		{
			temp_octave = *song - '0';// Seteo la octava en consecuencia
 574:	c8 2f       	mov	r28, r24
			song++;                   // Avanzo al pr?ximo caracter
		}
		if (*song=='.') // Un punto puede ser encontrado incluso despu?s de una octava
 576:	e0 91 9d 05 	lds	r30, 0x059D	; 0x80059d <song>
 57a:	f0 91 9e 05 	lds	r31, 0x059E	; 0x80059e <song+0x1>
 57e:	80 81       	ld	r24, Z
 580:	8e 32       	cpi	r24, 0x2E	; 46
 582:	69 f4       	brne	.+26     	; 0x59e <__EEPROM_REGION_LENGTH__+0x19e>
		{
			dot_flag = 1;             // Si se encuentra '.', seteo el flag
			song++;                   // Avanzo al pr?ximo caracter
 584:	31 96       	adiw	r30, 0x01	; 1
 586:	f0 93 9e 05 	sts	0x059E, r31	; 0x80059e <song+0x1>
 58a:	e0 93 9d 05 	sts	0x059D, r30	; 0x80059d <song>
			temp_octave = *song - '0';// Seteo la octava en consecuencia
			song++;                   // Avanzo al pr?ximo caracter
		}
		if (*song=='.') // Un punto puede ser encontrado incluso despu?s de una octava
		{
			dot_flag = 1;             // Si se encuentra '.', seteo el flag
 58e:	ff 24       	eor	r15, r15
 590:	f3 94       	inc	r15
 592:	05 c0       	rjmp	.+10     	; 0x59e <__EEPROM_REGION_LENGTH__+0x19e>
			song++;                   // Avanzo al pr?ximo caracter
		}
		while (*song == ',' && song_playing) song++;    // Salteo ','
 594:	31 96       	adiw	r30, 0x01	; 1
 596:	f0 93 9e 05 	sts	0x059E, r31	; 0x80059e <song+0x1>
 59a:	e0 93 9d 05 	sts	0x059D, r30	; 0x80059d <song>
 59e:	e0 91 9d 05 	lds	r30, 0x059D	; 0x80059d <song>
 5a2:	f0 91 9e 05 	lds	r31, 0x059E	; 0x80059e <song+0x1>
 5a6:	80 81       	ld	r24, Z
 5a8:	8c 32       	cpi	r24, 0x2C	; 44
 5aa:	21 f4       	brne	.+8      	; 0x5b4 <__EEPROM_REGION_LENGTH__+0x1b4>
 5ac:	80 91 00 01 	lds	r24, 0x0100	; 0x800100 <__DATA_REGION_ORIGIN__>
 5b0:	81 11       	cpse	r24, r1
 5b2:	f0 cf       	rjmp	.-32     	; 0x594 <__EEPROM_REGION_LENGTH__+0x194>
		// Calculo la duraci?n de la nota
		calc_duration = (60000/tempo)/(temp_duration);
 5b4:	20 91 a2 05 	lds	r18, 0x05A2	; 0x8005a2 <tempo>
 5b8:	30 91 a3 05 	lds	r19, 0x05A3	; 0x8005a3 <tempo+0x1>
 5bc:	40 e0       	ldi	r20, 0x00	; 0
 5be:	50 e0       	ldi	r21, 0x00	; 0
 5c0:	60 e6       	ldi	r22, 0x60	; 96
 5c2:	7a ee       	ldi	r23, 0xEA	; 234
 5c4:	80 e0       	ldi	r24, 0x00	; 0
 5c6:	90 e0       	ldi	r25, 0x00	; 0
 5c8:	0e 94 91 06 	call	0xd22	; 0xd22 <__divmodsi4>
 5cc:	ca 01       	movw	r24, r20
 5ce:	b9 01       	movw	r22, r18
 5d0:	20 2f       	mov	r18, r16
 5d2:	30 e0       	ldi	r19, 0x00	; 0
 5d4:	40 e0       	ldi	r20, 0x00	; 0
 5d6:	50 e0       	ldi	r21, 0x00	; 0
 5d8:	0e 94 91 06 	call	0xd22	; 0xd22 <__divmodsi4>
		calc_duration *= 4;         // La nota completa tiene cuatro beats
 5dc:	22 0f       	add	r18, r18
 5de:	33 1f       	adc	r19, r19
 5e0:	22 0f       	add	r18, r18
 5e2:	33 1f       	adc	r19, r19
		// Chequeo si el flag de punto est? activado, de ser as?, extiendo la duraci?n en un 50%
		if (dot_flag) calc_duration = (calc_duration*3)/2;
 5e4:	ff 20       	and	r15, r15
 5e6:	39 f0       	breq	.+14     	; 0x5f6 <__EEPROM_REGION_LENGTH__+0x1f6>
 5e8:	b9 01       	movw	r22, r18
 5ea:	66 0f       	add	r22, r22
 5ec:	77 1f       	adc	r23, r23
 5ee:	26 0f       	add	r18, r22
 5f0:	37 1f       	adc	r19, r23
 5f2:	36 95       	lsr	r19
 5f4:	27 95       	ror	r18
		// Si la nota actual NO es una pausa, reproduzco la nota usando la funci?n sound
		if (current_note<255) sound(note[temp_octave-4][current_note],calc_duration);
 5f6:	df 3f       	cpi	r29, 0xFF	; 255
 5f8:	c1 f0       	breq	.+48     	; 0x62a <__EEPROM_REGION_LENGTH__+0x22a>
 5fa:	8c 2f       	mov	r24, r28
 5fc:	90 e0       	ldi	r25, 0x00	; 0
 5fe:	04 97       	sbiw	r24, 0x04	; 4
 600:	fc 01       	movw	r30, r24
 602:	ee 0f       	add	r30, r30
 604:	ff 1f       	adc	r31, r31
 606:	e8 0f       	add	r30, r24
 608:	f9 1f       	adc	r31, r25
 60a:	ee 0f       	add	r30, r30
 60c:	ff 1f       	adc	r31, r31
 60e:	ee 0f       	add	r30, r30
 610:	ff 1f       	adc	r31, r31
 612:	ed 0f       	add	r30, r29
 614:	f1 1d       	adc	r31, r1
 616:	ee 0f       	add	r30, r30
 618:	ff 1f       	adc	r31, r31
 61a:	ef 5e       	subi	r30, 0xEF	; 239
 61c:	fe 4f       	sbci	r31, 0xFE	; 254
 61e:	b9 01       	movw	r22, r18
 620:	80 81       	ld	r24, Z
 622:	91 81       	ldd	r25, Z+1	; 0x01
 624:	0e 94 7b 00 	call	0xf6	; 0xf6 <sound>
 628:	0a c0       	rjmp	.+20     	; 0x63e <__EEPROM_REGION_LENGTH__+0x23e>
		else
		{ // Si la nota actual es una pausa (255), espero dicha cantidad de tiempo
			duration_timer = calc_duration;
 62a:	30 93 a6 05 	sts	0x05A6, r19	; 0x8005a6 <duration_timer+0x1>
 62e:	20 93 a5 05 	sts	0x05A5, r18	; 0x8005a5 <duration_timer>
			sound_playing = 1;
 632:	81 e0       	ldi	r24, 0x01	; 1
 634:	90 e0       	ldi	r25, 0x00	; 0
 636:	90 93 a0 05 	sts	0x05A0, r25	; 0x8005a0 <sound_playing+0x1>
 63a:	80 93 9f 05 	sts	0x059F, r24	; 0x80059f <sound_playing>
		}
		while (sound_playing && song_playing);      // Espero a la que nota/pausa en curso finalice
 63e:	80 91 9f 05 	lds	r24, 0x059F	; 0x80059f <sound_playing>
 642:	90 91 a0 05 	lds	r25, 0x05A0	; 0x8005a0 <sound_playing+0x1>
 646:	89 2b       	or	r24, r25
 648:	21 f0       	breq	.+8      	; 0x652 <__EEPROM_REGION_LENGTH__+0x252>
 64a:	80 91 00 01 	lds	r24, 0x0100	; 0x800100 <__DATA_REGION_ORIGIN__>
 64e:	81 11       	cpse	r24, r1
 650:	f6 cf       	rjmp	.-20     	; 0x63e <__EEPROM_REGION_LENGTH__+0x23e>
		}
		while (*song == ',' && song_playing) song++;    // Salteo ','
	}
	song++;                       // Avanzo al pr?ximo caracter
	// read the musical notes
	while (*song && song_playing)                 // Repito hasta que el caracter sea null
 652:	e0 91 9d 05 	lds	r30, 0x059D	; 0x80059d <song>
 656:	f0 91 9e 05 	lds	r31, 0x059E	; 0x80059e <song+0x1>
 65a:	80 81       	ld	r24, Z
 65c:	88 23       	and	r24, r24
 65e:	21 f0       	breq	.+8      	; 0x668 <__EEPROM_REGION_LENGTH__+0x268>
 660:	90 91 00 01 	lds	r25, 0x0100	; 0x800100 <__DATA_REGION_ORIGIN__>
 664:	91 11       	cpse	r25, r1
 666:	15 cf       	rjmp	.-470    	; 0x492 <__EEPROM_REGION_LENGTH__+0x92>
			duration_timer = calc_duration;
			sound_playing = 1;
		}
		while (sound_playing && song_playing);      // Espero a la que nota/pausa en curso finalice
	}
}
 668:	df 91       	pop	r29
 66a:	cf 91       	pop	r28
 66c:	0f 91       	pop	r16
 66e:	ff 90       	pop	r15
 670:	08 95       	ret

00000672 <__vector_14>:
#include "Menu/Menu.h"
#include "UART/UART.h"

// Control de la duraci?n del sonido
ISR (TIMER0_COMPA_vect) // ISR para la interrupci?n de comparaci?n del Timer 0
{
 672:	1f 92       	push	r1
 674:	0f 92       	push	r0
 676:	0f b6       	in	r0, 0x3f	; 63
 678:	0f 92       	push	r0
 67a:	11 24       	eor	r1, r1
 67c:	2f 93       	push	r18
 67e:	3f 93       	push	r19
 680:	4f 93       	push	r20
 682:	5f 93       	push	r21
 684:	6f 93       	push	r22
 686:	7f 93       	push	r23
 688:	8f 93       	push	r24
 68a:	9f 93       	push	r25
 68c:	af 93       	push	r26
 68e:	bf 93       	push	r27
 690:	ef 93       	push	r30
 692:	ff 93       	push	r31
	unsigned int duration_timer = get_duration_timer();
 694:	0e 94 76 00 	call	0xec	; 0xec <get_duration_timer>
	if (duration_timer) {
 698:	00 97       	sbiw	r24, 0x00	; 0
 69a:	21 f0       	breq	.+8      	; 0x6a4 <__vector_14+0x32>
		duration_timer--; // Decremento el timer si > 0
		set_duration_timer(duration_timer);
 69c:	01 97       	sbiw	r24, 0x01	; 1
 69e:	0e 94 6c 00 	call	0xd8	; 0xd8 <set_duration_timer>
 6a2:	06 c0       	rjmp	.+12     	; 0x6b0 <__vector_14+0x3e>
	}
	else                                  // si timer es = 0
	{
		TCCR1A=0;	// Desactivo el timer 1
 6a4:	10 92 80 00 	sts	0x0080, r1	; 0x800080 <__TEXT_REGION_LENGTH__+0x7f8080>
		set_sound_playing(0);                  // Borro el flag para avisar que no hay una nota sonando
 6a8:	80 e0       	ldi	r24, 0x00	; 0
 6aa:	90 e0       	ldi	r25, 0x00	; 0
 6ac:	0e 94 71 00 	call	0xe2	; 0xe2 <set_sound_playing>
	}
}
 6b0:	ff 91       	pop	r31
 6b2:	ef 91       	pop	r30
 6b4:	bf 91       	pop	r27
 6b6:	af 91       	pop	r26
 6b8:	9f 91       	pop	r25
 6ba:	8f 91       	pop	r24
 6bc:	7f 91       	pop	r23
 6be:	6f 91       	pop	r22
 6c0:	5f 91       	pop	r21
 6c2:	4f 91       	pop	r20
 6c4:	3f 91       	pop	r19
 6c6:	2f 91       	pop	r18
 6c8:	0f 90       	pop	r0
 6ca:	0f be       	out	0x3f, r0	; 63
 6cc:	0f 90       	pop	r0
 6ce:	1f 90       	pop	r1
 6d0:	18 95       	reti

000006d2 <main>:


	// ------------------------ Timer 0 ------------------------

	// Configuro una interrupci?n cada 1 mseg
	OCR0A = 248;			//124 para 8MHz y 248 para 16MHz
 6d2:	88 ef       	ldi	r24, 0xF8	; 248
 6d4:	87 bd       	out	0x27, r24	; 39
	TCCR0A = (1<<WGM01);   // Modo CTC, clock interno, prescalador 64
 6d6:	82 e0       	ldi	r24, 0x02	; 2
 6d8:	84 bd       	out	0x24, r24	; 36
	TCCR0B = (1<<CS01)|(1<<CS00);   // Modo CTC, clock interno, prescalador 64
 6da:	93 e0       	ldi	r25, 0x03	; 3
 6dc:	95 bd       	out	0x25, r25	; 37
	TIMSK0 = (1<<OCIE0A);   // Habilito Timer 0 en modo de interrupci?n de comparaci?n
 6de:	80 93 6e 00 	sts	0x006E, r24	; 0x80006e <__TEXT_REGION_LENGTH__+0x7f806e>


	// // ------------------------ Timer 1 ------------------------

	TCCR1A|=(1<<COM1A0);// Configuro Timer1 para clk con prescaler P=1, modo CTC y salida por pin
 6e2:	e0 e8       	ldi	r30, 0x80	; 128
 6e4:	f0 e0       	ldi	r31, 0x00	; 0
 6e6:	80 81       	ld	r24, Z
 6e8:	80 64       	ori	r24, 0x40	; 64
 6ea:	80 83       	st	Z, r24
	TCCR1B|=(1<<WGM12)|(1<<CS10);
 6ec:	e1 e8       	ldi	r30, 0x81	; 129
 6ee:	f0 e0       	ldi	r31, 0x00	; 0
 6f0:	80 81       	ld	r24, Z
 6f2:	89 60       	ori	r24, 0x09	; 9
 6f4:	80 83       	st	Z, r24
	DDRB|=(1<<PINB1); // El PIN1 del PORTB ser? el pin de salida
 6f6:	84 b1       	in	r24, 0x04	; 4
 6f8:	82 60       	ori	r24, 0x02	; 2
 6fa:	84 b9       	out	0x04, r24	; 4
	char MENU_flag=0;


	//Habilito la mAscara de interrupciones

	Buffer_Init();
 6fc:	0e 94 44 05 	call	0xa88	; 0xa88 <Buffer_Init>
	SerialPort_Init(103); // 9600 baudios para 16MHz
 700:	87 e6       	ldi	r24, 0x67	; 103
 702:	0e 94 a7 04 	call	0x94e	; 0x94e <SerialPort_Init>
	SerialPort_TX_Enable();
 706:	0e 94 b1 04 	call	0x962	; 0x962 <SerialPort_TX_Enable>
	SerialPort_RX_Enable();
 70a:	0e 94 c3 04 	call	0x986	; 0x986 <SerialPort_RX_Enable>
	SerialPort_RX_Interrupt_Enable();
 70e:	0e 94 c9 04 	call	0x992	; 0x992 <SerialPort_RX_Interrupt_Enable>

	MENU_display_welcome();
 712:	0e 94 d0 03 	call	0x7a0	; 0x7a0 <MENU_display_welcome>
	sei();
 716:	78 94       	sei
	
	while(1)
	{
		if (get_FLAG_datos_recibidos() == 1) {
 718:	0e 94 a8 05 	call	0xb50	; 0xb50 <get_FLAG_datos_recibidos>
 71c:	81 30       	cpi	r24, 0x01	; 1
 71e:	e1 f7       	brne	.-8      	; 0x718 <main+0x46>
			//UART_Write_String_To_Buffer("SE ENTRO A GESTIONAR EL FLAG");
			//cli();
			set_FLAG_datos_recibidos(0);
 720:	80 e0       	ldi	r24, 0x00	; 0
 722:	0e 94 ab 05 	call	0xb56	; 0xb56 <set_FLAG_datos_recibidos>
			
			// procesamiento BUffer_Rx
			MENU_process_inpt();
 726:	0e 94 83 04 	call	0x906	; 0x906 <MENU_process_inpt>
			
			sei();
 72a:	78 94       	sei
 72c:	f5 cf       	rjmp	.-22     	; 0x718 <main+0x46>

0000072e <MENU_display_songs>:
const char msjPlay[] = "    ==> PLAY: Reproduce la cancion seleccionada";
const char msjStop[] = "    ==> STOP: Detiene la reproduccion del sonido en curso";
const char msjNum[] = "    ==> NUM: Numero de cancion a seleccionar de la lista [1 a N]";
const char msjReset[] = "    ==> RESET: Reinicia el sistema al estado inicial\n";

void MENU_display_songs(void){
 72e:	0f 93       	push	r16
 730:	1f 93       	push	r17
 732:	cf 93       	push	r28
 734:	df 93       	push	r29
	UART_Write_String_To_Buffer(msjSongs);
 736:	89 e6       	ldi	r24, 0x69	; 105
 738:	95 e0       	ldi	r25, 0x05	; 5
 73a:	0e 94 e4 05 	call	0xbc8	; 0xbc8 <UART_Write_String_To_Buffer>
	
	const char ** songs = AUDIO_get_songs_menu();
 73e:	0e 94 5a 00 	call	0xb4	; 0xb4 <AUDIO_get_songs_menu>
 742:	8c 01       	movw	r16, r24
	for (int i = 0; i < CANT_SONGS; i++){
 744:	c0 e0       	ldi	r28, 0x00	; 0
 746:	d0 e0       	ldi	r29, 0x00	; 0
 748:	0e c0       	rjmp	.+28     	; 0x766 <MENU_display_songs+0x38>
		UART_Write_String_To_Buffer_No_NewLine("	");
 74a:	83 ed       	ldi	r24, 0xD3	; 211
 74c:	93 e0       	ldi	r25, 0x03	; 3
 74e:	0e 94 7c 06 	call	0xcf8	; 0xcf8 <UART_Write_String_To_Buffer_No_NewLine>
		UART_Write_String_To_Buffer(songs[i]);
 752:	fe 01       	movw	r30, r28
 754:	ee 0f       	add	r30, r30
 756:	ff 1f       	adc	r31, r31
 758:	e0 0f       	add	r30, r16
 75a:	f1 1f       	adc	r31, r17
 75c:	80 81       	ld	r24, Z
 75e:	91 81       	ldd	r25, Z+1	; 0x01
 760:	0e 94 e4 05 	call	0xbc8	; 0xbc8 <UART_Write_String_To_Buffer>

void MENU_display_songs(void){
	UART_Write_String_To_Buffer(msjSongs);
	
	const char ** songs = AUDIO_get_songs_menu();
	for (int i = 0; i < CANT_SONGS; i++){
 764:	21 96       	adiw	r28, 0x01	; 1
 766:	c4 30       	cpi	r28, 0x04	; 4
 768:	d1 05       	cpc	r29, r1
 76a:	7c f3       	brlt	.-34     	; 0x74a <MENU_display_songs+0x1c>
		UART_Write_String_To_Buffer_No_NewLine("	");
		UART_Write_String_To_Buffer(songs[i]);
	}
}
 76c:	df 91       	pop	r29
 76e:	cf 91       	pop	r28
 770:	1f 91       	pop	r17
 772:	0f 91       	pop	r16
 774:	08 95       	ret

00000776 <MENU_display_commands>:

void MENU_display_commands(){
	UART_Write_String_To_Buffer(msjCommands);
 776:	8f e5       	ldi	r24, 0x5F	; 95
 778:	95 e0       	ldi	r25, 0x05	; 5
 77a:	0e 94 e4 05 	call	0xbc8	; 0xbc8 <UART_Write_String_To_Buffer>
	UART_Write_String_To_Buffer(msjPlay);
 77e:	8f e2       	ldi	r24, 0x2F	; 47
 780:	95 e0       	ldi	r25, 0x05	; 5
 782:	0e 94 e4 05 	call	0xbc8	; 0xbc8 <UART_Write_String_To_Buffer>
	UART_Write_String_To_Buffer(msjStop);
 786:	85 ef       	ldi	r24, 0xF5	; 245
 788:	94 e0       	ldi	r25, 0x04	; 4
 78a:	0e 94 e4 05 	call	0xbc8	; 0xbc8 <UART_Write_String_To_Buffer>
	UART_Write_String_To_Buffer(msjNum);
 78e:	84 eb       	ldi	r24, 0xB4	; 180
 790:	94 e0       	ldi	r25, 0x04	; 4
 792:	0e 94 e4 05 	call	0xbc8	; 0xbc8 <UART_Write_String_To_Buffer>
	UART_Write_String_To_Buffer(msjReset);
 796:	8e e7       	ldi	r24, 0x7E	; 126
 798:	94 e0       	ldi	r25, 0x04	; 4
 79a:	0e 94 e4 05 	call	0xbc8	; 0xbc8 <UART_Write_String_To_Buffer>
 79e:	08 95       	ret

000007a0 <MENU_display_welcome>:
}

void MENU_display_welcome(){
	UART_Write_String_To_Buffer(msjBienvenida);
 7a0:	84 e7       	ldi	r24, 0x74	; 116
 7a2:	95 e0       	ldi	r25, 0x05	; 5
 7a4:	0e 94 e4 05 	call	0xbc8	; 0xbc8 <UART_Write_String_To_Buffer>
	MENU_display_songs();
 7a8:	0e 94 97 03 	call	0x72e	; 0x72e <MENU_display_songs>
	UART_Write_String_To_Buffer_No_NewLine("\n");
 7ac:	8c e7       	ldi	r24, 0x7C	; 124
 7ae:	94 e0       	ldi	r25, 0x04	; 4
 7b0:	0e 94 7c 06 	call	0xcf8	; 0xcf8 <UART_Write_String_To_Buffer_No_NewLine>
	MENU_display_commands();
 7b4:	0e 94 bb 03 	call	0x776	; 0x776 <MENU_display_commands>
 7b8:	08 95       	ret

000007ba <create_substring>:
	
}

void create_substring(Buffer_RX* buffer, uint8_t* substring) {
 7ba:	cf 92       	push	r12
 7bc:	df 92       	push	r13
 7be:	ef 92       	push	r14
 7c0:	ff 92       	push	r15
 7c2:	0f 93       	push	r16
 7c4:	1f 93       	push	r17
 7c6:	cf 93       	push	r28
 7c8:	df 93       	push	r29
 7ca:	8c 01       	movw	r16, r24
 7cc:	7b 01       	movw	r14, r22
	uint16_t j = 0;
 7ce:	c0 e0       	ldi	r28, 0x00	; 0
 7d0:	d0 e0       	ldi	r29, 0x00	; 0
	
	while (buffer->data[buffer->index_lectura] != '\r') {
 7d2:	0a c0       	rjmp	.+20     	; 0x7e8 <create_substring+0x2e>
		substring[j++] = buffer->data[buffer->index_lectura];
 7d4:	6e 01       	movw	r12, r28
 7d6:	9f ef       	ldi	r25, 0xFF	; 255
 7d8:	c9 1a       	sub	r12, r25
 7da:	d9 0a       	sbc	r13, r25
 7dc:	ce 0d       	add	r28, r14
 7de:	df 1d       	adc	r29, r15
 7e0:	88 83       	st	Y, r24
		inc_RX_index_lectura();
 7e2:	0e 94 89 05 	call	0xb12	; 0xb12 <inc_RX_index_lectura>

void create_substring(Buffer_RX* buffer, uint8_t* substring) {
	uint16_t j = 0;
	
	while (buffer->data[buffer->index_lectura] != '\r') {
		substring[j++] = buffer->data[buffer->index_lectura];
 7e6:	e6 01       	movw	r28, r12
}

void create_substring(Buffer_RX* buffer, uint8_t* substring) {
	uint16_t j = 0;
	
	while (buffer->data[buffer->index_lectura] != '\r') {
 7e8:	f8 01       	movw	r30, r16
 7ea:	ee 5a       	subi	r30, 0xAE	; 174
 7ec:	ff 4f       	sbci	r31, 0xFF	; 255
 7ee:	01 90       	ld	r0, Z+
 7f0:	f0 81       	ld	r31, Z
 7f2:	e0 2d       	mov	r30, r0
 7f4:	e0 0f       	add	r30, r16
 7f6:	f1 1f       	adc	r31, r17
 7f8:	80 81       	ld	r24, Z
 7fa:	8d 30       	cpi	r24, 0x0D	; 13
 7fc:	59 f7       	brne	.-42     	; 0x7d4 <create_substring+0x1a>
		substring[j++] = buffer->data[buffer->index_lectura];
		inc_RX_index_lectura();
	}
	inc_RX_index_lectura();
 7fe:	0e 94 89 05 	call	0xb12	; 0xb12 <inc_RX_index_lectura>
	inc_RX_index_lectura();
 802:	0e 94 89 05 	call	0xb12	; 0xb12 <inc_RX_index_lectura>
	substring[j] = '\0'; // append null character at the end
 806:	ce 0d       	add	r28, r14
 808:	df 1d       	adc	r29, r15
 80a:	18 82       	st	Y, r1
}
 80c:	df 91       	pop	r29
 80e:	cf 91       	pop	r28
 810:	1f 91       	pop	r17
 812:	0f 91       	pop	r16
 814:	ff 90       	pop	r15
 816:	ef 90       	pop	r14
 818:	df 90       	pop	r13
 81a:	cf 90       	pop	r12
 81c:	08 95       	ret

0000081e <MENU_select_option>:


void MENU_select_option(char * inpt){
 81e:	cf 93       	push	r28
 820:	df 93       	push	r29
 822:	ec 01       	movw	r28, r24
	if (strcmp(inpt, "PLAY") == 0){
 824:	65 ed       	ldi	r22, 0xD5	; 213
 826:	73 e0       	ldi	r23, 0x03	; 3
 828:	0e 94 e7 06 	call	0xdce	; 0xdce <strcmp>
 82c:	89 2b       	or	r24, r25
 82e:	39 f4       	brne	.+14     	; 0x83e <MENU_select_option+0x20>
		
		UART_Write_String_To_Buffer("Playing song\n");
 830:	8a ed       	ldi	r24, 0xDA	; 218
 832:	93 e0       	ldi	r25, 0x03	; 3
 834:	0e 94 e4 05 	call	0xbc8	; 0xbc8 <UART_Write_String_To_Buffer>
		play_song();
 838:	0e 94 b0 00 	call	0x160	; 0x160 <play_song>
 83c:	61 c0       	rjmp	.+194    	; 0x900 <__stack+0x1>
		
	}
	else if (strcmp(inpt, "STOP") == 0){
 83e:	68 ee       	ldi	r22, 0xE8	; 232
 840:	73 e0       	ldi	r23, 0x03	; 3
 842:	ce 01       	movw	r24, r28
 844:	0e 94 e7 06 	call	0xdce	; 0xdce <strcmp>
 848:	89 2b       	or	r24, r25
 84a:	39 f4       	brne	.+14     	; 0x85a <MENU_select_option+0x3c>
		
		stop_song();
 84c:	0e 94 a4 00 	call	0x148	; 0x148 <stop_song>
		UART_Write_String_To_Buffer("Stopped song\n");
 850:	8d ee       	ldi	r24, 0xED	; 237
 852:	93 e0       	ldi	r25, 0x03	; 3
 854:	0e 94 e4 05 	call	0xbc8	; 0xbc8 <UART_Write_String_To_Buffer>
 858:	53 c0       	rjmp	.+166    	; 0x900 <__stack+0x1>
		
	}
	else if (strncmp(inpt, "NUM", 3) == 0){
 85a:	43 e0       	ldi	r20, 0x03	; 3
 85c:	50 e0       	ldi	r21, 0x00	; 0
 85e:	6b ef       	ldi	r22, 0xFB	; 251
 860:	73 e0       	ldi	r23, 0x03	; 3
 862:	ce 01       	movw	r24, r28
 864:	0e 94 f0 06 	call	0xde0	; 0xde0 <strncmp>
 868:	89 2b       	or	r24, r25
 86a:	99 f5       	brne	.+102    	; 0x8d2 <MENU_select_option+0xb4>
		
		// Si el formato es "NUM X"
		if (inpt[3] == ' ' && inpt[5] == '\0') {
 86c:	8b 81       	ldd	r24, Y+3	; 0x03
 86e:	80 32       	cpi	r24, 0x20	; 32
 870:	59 f5       	brne	.+86     	; 0x8c8 <MENU_select_option+0xaa>
 872:	8d 81       	ldd	r24, Y+5	; 0x05
 874:	81 11       	cpse	r24, r1
 876:	28 c0       	rjmp	.+80     	; 0x8c8 <MENU_select_option+0xaa>

			// value contiene el valor "X"
			uint8_t value = inpt[4] - '0';
 878:	cc 81       	ldd	r28, Y+4	; 0x04
 87a:	c0 53       	subi	r28, 0x30	; 48
			
			if (value >= 0 && value < CANT_SONGS){
 87c:	c4 30       	cpi	r28, 0x04	; 4
 87e:	c8 f4       	brcc	.+50     	; 0x8b2 <MENU_select_option+0x94>
				UART_Write_String_To_Buffer_No_NewLine("Song selected ");
 880:	8f ef       	ldi	r24, 0xFF	; 255
 882:	93 e0       	ldi	r25, 0x03	; 3
 884:	0e 94 7c 06 	call	0xcf8	; 0xcf8 <UART_Write_String_To_Buffer_No_NewLine>
				const char ** songs = AUDIO_get_songs_menu();
 888:	0e 94 5a 00 	call	0xb4	; 0xb4 <AUDIO_get_songs_menu>
				UART_Write_String_To_Buffer(songs[value]);
 88c:	2c 2f       	mov	r18, r28
 88e:	30 e0       	ldi	r19, 0x00	; 0
 890:	22 0f       	add	r18, r18
 892:	33 1f       	adc	r19, r19
 894:	82 0f       	add	r24, r18
 896:	93 1f       	adc	r25, r19
 898:	fc 01       	movw	r30, r24
 89a:	80 81       	ld	r24, Z
 89c:	91 81       	ldd	r25, Z+1	; 0x01
 89e:	0e 94 e4 05 	call	0xbc8	; 0xbc8 <UART_Write_String_To_Buffer>
				
				set_song(value);
 8a2:	8c 2f       	mov	r24, r28
 8a4:	0e 94 5d 00 	call	0xba	; 0xba <set_song>
				UART_Write_String_To_Buffer("\n");
 8a8:	8c e7       	ldi	r24, 0x7C	; 124
 8aa:	94 e0       	ldi	r25, 0x04	; 4
 8ac:	0e 94 e4 05 	call	0xbc8	; 0xbc8 <UART_Write_String_To_Buffer>
 8b0:	27 c0       	rjmp	.+78     	; 0x900 <__stack+0x1>
				
			}
			else{
				UART_Write_String_To_Buffer("Ingrese un numero adecuado");
 8b2:	8e e0       	ldi	r24, 0x0E	; 14
 8b4:	94 e0       	ldi	r25, 0x04	; 4
 8b6:	0e 94 e4 05 	call	0xbc8	; 0xbc8 <UART_Write_String_To_Buffer>
				MENU_display_songs();
 8ba:	0e 94 97 03 	call	0x72e	; 0x72e <MENU_display_songs>
				UART_Write_String_To_Buffer("\n");
 8be:	8c e7       	ldi	r24, 0x7C	; 124
 8c0:	94 e0       	ldi	r25, 0x04	; 4
 8c2:	0e 94 e4 05 	call	0xbc8	; 0xbc8 <UART_Write_String_To_Buffer>
 8c6:	1c c0       	rjmp	.+56     	; 0x900 <__stack+0x1>

		}
		else {
			
			// Si el formato no es "NUM X"
			UART_Write_String_To_Buffer("Command usage: NUM [number of song]\n");
 8c8:	89 e2       	ldi	r24, 0x29	; 41
 8ca:	94 e0       	ldi	r25, 0x04	; 4
 8cc:	0e 94 e4 05 	call	0xbc8	; 0xbc8 <UART_Write_String_To_Buffer>
 8d0:	17 c0       	rjmp	.+46     	; 0x900 <__stack+0x1>
			
		}
	}
	else if (strcmp(inpt, "RESET") == 0){
 8d2:	6e e4       	ldi	r22, 0x4E	; 78
 8d4:	74 e0       	ldi	r23, 0x04	; 4
 8d6:	ce 01       	movw	r24, r28
 8d8:	0e 94 e7 06 	call	0xdce	; 0xdce <strcmp>
 8dc:	89 2b       	or	r24, r25
 8de:	61 f4       	brne	.+24     	; 0x8f8 <MENU_select_option+0xda>
		UART_Write_String_To_Buffer("RESETTING system\n");
 8e0:	84 e5       	ldi	r24, 0x54	; 84
 8e2:	94 e0       	ldi	r25, 0x04	; 4
 8e4:	0e 94 e4 05 	call	0xbc8	; 0xbc8 <UART_Write_String_To_Buffer>
		stop_song();
 8e8:	0e 94 a4 00 	call	0x148	; 0x148 <stop_song>
		set_song(0);
 8ec:	80 e0       	ldi	r24, 0x00	; 0
 8ee:	0e 94 5d 00 	call	0xba	; 0xba <set_song>
		Buffer_Init();
		sei();
		UART_Write_String_To_Buffer("RESETTING system\n");
		*/
		// Reimprime el menu
		MENU_display_commands();
 8f2:	0e 94 bb 03 	call	0x776	; 0x776 <MENU_display_commands>
 8f6:	04 c0       	rjmp	.+8      	; 0x900 <__stack+0x1>
		
	}
	else{
		UART_Write_String_To_Buffer("Comando no encontrado\r\n");
 8f8:	86 e6       	ldi	r24, 0x66	; 102
 8fa:	94 e0       	ldi	r25, 0x04	; 4
 8fc:	0e 94 e4 05 	call	0xbc8	; 0xbc8 <UART_Write_String_To_Buffer>
	}
	
}
 900:	df 91       	pop	r29
 902:	cf 91       	pop	r28
 904:	08 95       	ret

00000906 <MENU_process_inpt>:

void MENU_process_inpt(){
 906:	cf 93       	push	r28
 908:	df 93       	push	r29
 90a:	cd b7       	in	r28, 0x3d	; 61
 90c:	de b7       	in	r29, 0x3e	; 62
 90e:	c0 55       	subi	r28, 0x50	; 80
 910:	d1 09       	sbc	r29, r1
 912:	0f b6       	in	r0, 0x3f	; 63
 914:	f8 94       	cli
 916:	de bf       	out	0x3e, r29	; 62
 918:	0f be       	out	0x3f, r0	; 63
 91a:	cd bf       	out	0x3d, r28	; 61
	uint8_t substring[BUFFER_RX_LEN];
	
	create_substring(get_RX_data(), substring);
 91c:	0e 94 5d 05 	call	0xaba	; 0xaba <get_RX_data>
 920:	be 01       	movw	r22, r28
 922:	6f 5f       	subi	r22, 0xFF	; 255
 924:	7f 4f       	sbci	r23, 0xFF	; 255
 926:	0e 94 dd 03 	call	0x7ba	; 0x7ba <create_substring>
	UART_Write_String_To_Buffer(substring);
 92a:	ce 01       	movw	r24, r28
 92c:	01 96       	adiw	r24, 0x01	; 1
 92e:	0e 94 e4 05 	call	0xbc8	; 0xbc8 <UART_Write_String_To_Buffer>
	MENU_select_option(substring);
 932:	ce 01       	movw	r24, r28
 934:	01 96       	adiw	r24, 0x01	; 1
 936:	0e 94 0f 04 	call	0x81e	; 0x81e <MENU_select_option>
}
 93a:	c0 5b       	subi	r28, 0xB0	; 176
 93c:	df 4f       	sbci	r29, 0xFF	; 255
 93e:	0f b6       	in	r0, 0x3f	; 63
 940:	f8 94       	cli
 942:	de bf       	out	0x3e, r29	; 62
 944:	0f be       	out	0x3f, r0	; 63
 946:	cd bf       	out	0x3d, r28	; 61
 948:	df 91       	pop	r29
 94a:	cf 91       	pop	r28
 94c:	08 95       	ret

0000094e <SerialPort_Init>:
// Inicializacin de Puerto Serie

void SerialPort_Init(uint8_t config){
	// config = 0x33 ==> Configuro UART 9600bps, 8 bit data, 1 stop @ F_CPU = 8MHz.
	// config = 0x25 ==> Configuro UART 9600bps, 8 bit data, 1 stop @ F_CPU = 4Hz.
	UCSR0B = 0;
 94e:	10 92 c1 00 	sts	0x00C1, r1	; 0x8000c1 <__TEXT_REGION_LENGTH__+0x7f80c1>
	UCSR0C = (1<<UCSZ01) | (1<<UCSZ00);
 952:	96 e0       	ldi	r25, 0x06	; 6
 954:	90 93 c2 00 	sts	0x00C2, r25	; 0x8000c2 <__TEXT_REGION_LENGTH__+0x7f80c2>
	UBRR0H = (unsigned char)(config>>8);
 958:	10 92 c5 00 	sts	0x00C5, r1	; 0x8000c5 <__TEXT_REGION_LENGTH__+0x7f80c5>
	UBRR0L = (unsigned char)config;
 95c:	80 93 c4 00 	sts	0x00C4, r24	; 0x8000c4 <__TEXT_REGION_LENGTH__+0x7f80c4>
 960:	08 95       	ret

00000962 <SerialPort_TX_Enable>:


// Inicializacin de Transmisor

void SerialPort_TX_Enable(void){
	UCSR0B |= (1<<TXEN0);
 962:	e1 ec       	ldi	r30, 0xC1	; 193
 964:	f0 e0       	ldi	r31, 0x00	; 0
 966:	80 81       	ld	r24, Z
 968:	88 60       	ori	r24, 0x08	; 8
 96a:	80 83       	st	Z, r24
 96c:	08 95       	ret

0000096e <SerialPort_TX_Interrupt_Enable>:
}

void SerialPort_TX_Interrupt_Enable(void){
	UCSR0B |= (1<<UDRIE0);
 96e:	e1 ec       	ldi	r30, 0xC1	; 193
 970:	f0 e0       	ldi	r31, 0x00	; 0
 972:	80 81       	ld	r24, Z
 974:	80 62       	ori	r24, 0x20	; 32
 976:	80 83       	st	Z, r24
 978:	08 95       	ret

0000097a <SerialPort_TX_Interrupt_Disable>:
}

void SerialPort_TX_Interrupt_Disable(void)
{
	UCSR0B &=~(1<<UDRIE0);
 97a:	e1 ec       	ldi	r30, 0xC1	; 193
 97c:	f0 e0       	ldi	r31, 0x00	; 0
 97e:	80 81       	ld	r24, Z
 980:	8f 7d       	andi	r24, 0xDF	; 223
 982:	80 83       	st	Z, r24
 984:	08 95       	ret

00000986 <SerialPort_RX_Enable>:


// Inicializacin de Receptor

void SerialPort_RX_Enable(void){
	UCSR0B |= (1<<RXEN0);
 986:	e1 ec       	ldi	r30, 0xC1	; 193
 988:	f0 e0       	ldi	r31, 0x00	; 0
 98a:	80 81       	ld	r24, Z
 98c:	80 61       	ori	r24, 0x10	; 16
 98e:	80 83       	st	Z, r24
 990:	08 95       	ret

00000992 <SerialPort_RX_Interrupt_Enable>:
}

void SerialPort_RX_Interrupt_Enable(void){
	UCSR0B |= (1<<RXCIE0);
 992:	e1 ec       	ldi	r30, 0xC1	; 193
 994:	f0 e0       	ldi	r31, 0x00	; 0
 996:	80 81       	ld	r24, Z
 998:	80 68       	ori	r24, 0x80	; 128
 99a:	80 83       	st	Z, r24
 99c:	08 95       	ret

0000099e <__vector_19>:
void UART_Send_Char ( uint8_t dato) {
	//long Timeout = 0;
	//while ( ( ++Timeout ) && ((UCSR0A & (1<<UDRE0))==0));

	//if (Timeout != 0)
		UDR0 = dato;
 99e:	1f 92       	push	r1
 9a0:	0f 92       	push	r0
 9a2:	0f b6       	in	r0, 0x3f	; 63
 9a4:	0f 92       	push	r0
 9a6:	11 24       	eor	r1, r1
 9a8:	2f 93       	push	r18
 9aa:	3f 93       	push	r19
 9ac:	4f 93       	push	r20
 9ae:	5f 93       	push	r21
 9b0:	6f 93       	push	r22
 9b2:	7f 93       	push	r23
 9b4:	8f 93       	push	r24
 9b6:	9f 93       	push	r25
 9b8:	af 93       	push	r26
 9ba:	bf 93       	push	r27
 9bc:	ef 93       	push	r30
 9be:	ff 93       	push	r31
 9c0:	40 91 9e 07 	lds	r20, 0x079E	; 0x80079e <TX_buffer+0x1f6>
 9c4:	50 91 9f 07 	lds	r21, 0x079F	; 0x80079f <TX_buffer+0x1f7>
 9c8:	9a 01       	movw	r18, r20
 9ca:	36 95       	lsr	r19
 9cc:	27 95       	ror	r18
 9ce:	36 95       	lsr	r19
 9d0:	27 95       	ror	r18
 9d2:	a5 ec       	ldi	r26, 0xC5	; 197
 9d4:	b0 e2       	ldi	r27, 0x20	; 32
 9d6:	0e 94 b6 06 	call	0xd6c	; 0xd6c <__umulhisi3>
 9da:	92 95       	swap	r25
 9dc:	82 95       	swap	r24
 9de:	8f 70       	andi	r24, 0x0F	; 15
 9e0:	89 27       	eor	r24, r25
 9e2:	9f 70       	andi	r25, 0x0F	; 15
 9e4:	89 27       	eor	r24, r25
 9e6:	64 ef       	ldi	r22, 0xF4	; 244
 9e8:	71 e0       	ldi	r23, 0x01	; 1
 9ea:	86 9f       	mul	r24, r22
 9ec:	90 01       	movw	r18, r0
 9ee:	87 9f       	mul	r24, r23
 9f0:	30 0d       	add	r19, r0
 9f2:	96 9f       	mul	r25, r22
 9f4:	30 0d       	add	r19, r0
 9f6:	11 24       	eor	r1, r1
 9f8:	ca 01       	movw	r24, r20
 9fa:	82 1b       	sub	r24, r18
 9fc:	93 0b       	sbc	r25, r19
 9fe:	20 91 9c 07 	lds	r18, 0x079C	; 0x80079c <TX_buffer+0x1f4>
 a02:	30 91 9d 07 	lds	r19, 0x079D	; 0x80079d <TX_buffer+0x1f5>
 a06:	82 17       	cp	r24, r18
 a08:	93 07       	cpc	r25, r19
 a0a:	29 f4       	brne	.+10     	; 0xa16 <__vector_19+0x78>
 a0c:	0e 94 bd 04 	call	0x97a	; 0x97a <SerialPort_TX_Interrupt_Disable>
 a10:	0e 94 c9 04 	call	0x992	; 0x992 <SerialPort_RX_Interrupt_Enable>
 a14:	28 c0       	rjmp	.+80     	; 0xa66 <__vector_19+0xc8>
 a16:	fa 01       	movw	r30, r20
 a18:	e8 55       	subi	r30, 0x58	; 88
 a1a:	fa 4f       	sbci	r31, 0xFA	; 250
 a1c:	80 81       	ld	r24, Z
 a1e:	80 93 c6 00 	sts	0x00C6, r24	; 0x8000c6 <__TEXT_REGION_LENGTH__+0x7f80c6>
 a22:	ee e9       	ldi	r30, 0x9E	; 158
 a24:	f7 e0       	ldi	r31, 0x07	; 7
 a26:	40 81       	ld	r20, Z
 a28:	51 81       	ldd	r21, Z+1	; 0x01
 a2a:	4f 5f       	subi	r20, 0xFF	; 255
 a2c:	5f 4f       	sbci	r21, 0xFF	; 255
 a2e:	9a 01       	movw	r18, r20
 a30:	36 95       	lsr	r19
 a32:	27 95       	ror	r18
 a34:	36 95       	lsr	r19
 a36:	27 95       	ror	r18
 a38:	a5 ec       	ldi	r26, 0xC5	; 197
 a3a:	b0 e2       	ldi	r27, 0x20	; 32
 a3c:	0e 94 b6 06 	call	0xd6c	; 0xd6c <__umulhisi3>
 a40:	92 95       	swap	r25
 a42:	82 95       	swap	r24
 a44:	8f 70       	andi	r24, 0x0F	; 15
 a46:	89 27       	eor	r24, r25
 a48:	9f 70       	andi	r25, 0x0F	; 15
 a4a:	89 27       	eor	r24, r25
 a4c:	64 ef       	ldi	r22, 0xF4	; 244
 a4e:	71 e0       	ldi	r23, 0x01	; 1
 a50:	86 9f       	mul	r24, r22
 a52:	90 01       	movw	r18, r0
 a54:	87 9f       	mul	r24, r23
 a56:	30 0d       	add	r19, r0
 a58:	96 9f       	mul	r25, r22
 a5a:	30 0d       	add	r19, r0
 a5c:	11 24       	eor	r1, r1
 a5e:	42 1b       	sub	r20, r18
 a60:	53 0b       	sbc	r21, r19
 a62:	51 83       	std	Z+1, r21	; 0x01
 a64:	40 83       	st	Z, r20
 a66:	ff 91       	pop	r31
 a68:	ef 91       	pop	r30
 a6a:	bf 91       	pop	r27
 a6c:	af 91       	pop	r26
 a6e:	9f 91       	pop	r25
 a70:	8f 91       	pop	r24
 a72:	7f 91       	pop	r23
 a74:	6f 91       	pop	r22
 a76:	5f 91       	pop	r21
 a78:	4f 91       	pop	r20
 a7a:	3f 91       	pop	r19
 a7c:	2f 91       	pop	r18
 a7e:	0f 90       	pop	r0
 a80:	0f be       	out	0x3f, r0	; 63
 a82:	0f 90       	pop	r0
 a84:	1f 90       	pop	r1
 a86:	18 95       	reti

00000a88 <Buffer_Init>:
 a88:	10 92 9d 07 	sts	0x079D, r1	; 0x80079d <TX_buffer+0x1f5>
 a8c:	10 92 9c 07 	sts	0x079C, r1	; 0x80079c <TX_buffer+0x1f4>
 a90:	10 92 9f 07 	sts	0x079F, r1	; 0x80079f <TX_buffer+0x1f7>
 a94:	10 92 9e 07 	sts	0x079E, r1	; 0x80079e <TX_buffer+0x1f6>
 a98:	10 92 f1 07 	sts	0x07F1, r1	; 0x8007f1 <RX_buffer+0x51>
 a9c:	10 92 f0 07 	sts	0x07F0, r1	; 0x8007f0 <RX_buffer+0x50>
 aa0:	10 92 f3 07 	sts	0x07F3, r1	; 0x8007f3 <RX_buffer+0x53>
 aa4:	10 92 f2 07 	sts	0x07F2, r1	; 0x8007f2 <RX_buffer+0x52>
 aa8:	08 95       	ret

00000aaa <get_RX_data_index_lectura>:
 aaa:	e0 91 f2 07 	lds	r30, 0x07F2	; 0x8007f2 <RX_buffer+0x52>
 aae:	f0 91 f3 07 	lds	r31, 0x07F3	; 0x8007f3 <RX_buffer+0x53>
 ab2:	e0 56       	subi	r30, 0x60	; 96
 ab4:	f8 4f       	sbci	r31, 0xF8	; 248
 ab6:	80 81       	ld	r24, Z
 ab8:	08 95       	ret

00000aba <get_RX_data>:
 aba:	80 ea       	ldi	r24, 0xA0	; 160
 abc:	97 e0       	ldi	r25, 0x07	; 7
 abe:	08 95       	ret

00000ac0 <set_RX_data_UDR0>:
 ac0:	e0 91 f0 07 	lds	r30, 0x07F0	; 0x8007f0 <RX_buffer+0x50>
 ac4:	f0 91 f1 07 	lds	r31, 0x07F1	; 0x8007f1 <RX_buffer+0x51>
 ac8:	80 91 c6 00 	lds	r24, 0x00C6	; 0x8000c6 <__TEXT_REGION_LENGTH__+0x7f80c6>
 acc:	e0 56       	subi	r30, 0x60	; 96
 ace:	f8 4f       	sbci	r31, 0xF8	; 248
 ad0:	80 83       	st	Z, r24
 ad2:	08 95       	ret

00000ad4 <inc_RX_index_escritura>:
 ad4:	e0 ef       	ldi	r30, 0xF0	; 240
 ad6:	f7 e0       	ldi	r31, 0x07	; 7
 ad8:	40 81       	ld	r20, Z
 ada:	51 81       	ldd	r21, Z+1	; 0x01
 adc:	4f 5f       	subi	r20, 0xFF	; 255
 ade:	5f 4f       	sbci	r21, 0xFF	; 255
 ae0:	9a 01       	movw	r18, r20
 ae2:	ad ec       	ldi	r26, 0xCD	; 205
 ae4:	bc ec       	ldi	r27, 0xCC	; 204
 ae6:	0e 94 b6 06 	call	0xd6c	; 0xd6c <__umulhisi3>
 aea:	00 24       	eor	r0, r0
 aec:	88 0f       	add	r24, r24
 aee:	99 1f       	adc	r25, r25
 af0:	00 1c       	adc	r0, r0
 af2:	88 0f       	add	r24, r24
 af4:	99 1f       	adc	r25, r25
 af6:	00 1c       	adc	r0, r0
 af8:	89 2f       	mov	r24, r25
 afa:	90 2d       	mov	r25, r0
 afc:	60 e5       	ldi	r22, 0x50	; 80
 afe:	68 9f       	mul	r22, r24
 b00:	90 01       	movw	r18, r0
 b02:	69 9f       	mul	r22, r25
 b04:	30 0d       	add	r19, r0
 b06:	11 24       	eor	r1, r1
 b08:	42 1b       	sub	r20, r18
 b0a:	53 0b       	sbc	r21, r19
 b0c:	51 83       	std	Z+1, r21	; 0x01
 b0e:	40 83       	st	Z, r20
 b10:	08 95       	ret

00000b12 <inc_RX_index_lectura>:
 b12:	e2 ef       	ldi	r30, 0xF2	; 242
 b14:	f7 e0       	ldi	r31, 0x07	; 7
 b16:	40 81       	ld	r20, Z
 b18:	51 81       	ldd	r21, Z+1	; 0x01
 b1a:	4f 5f       	subi	r20, 0xFF	; 255
 b1c:	5f 4f       	sbci	r21, 0xFF	; 255
 b1e:	9a 01       	movw	r18, r20
 b20:	ad ec       	ldi	r26, 0xCD	; 205
 b22:	bc ec       	ldi	r27, 0xCC	; 204
 b24:	0e 94 b6 06 	call	0xd6c	; 0xd6c <__umulhisi3>
 b28:	00 24       	eor	r0, r0
 b2a:	88 0f       	add	r24, r24
 b2c:	99 1f       	adc	r25, r25
 b2e:	00 1c       	adc	r0, r0
 b30:	88 0f       	add	r24, r24
 b32:	99 1f       	adc	r25, r25
 b34:	00 1c       	adc	r0, r0
 b36:	89 2f       	mov	r24, r25
 b38:	90 2d       	mov	r25, r0
 b3a:	60 e5       	ldi	r22, 0x50	; 80
 b3c:	68 9f       	mul	r22, r24
 b3e:	90 01       	movw	r18, r0
 b40:	69 9f       	mul	r22, r25
 b42:	30 0d       	add	r19, r0
 b44:	11 24       	eor	r1, r1
 b46:	42 1b       	sub	r20, r18
 b48:	53 0b       	sbc	r21, r19
 b4a:	51 83       	std	Z+1, r21	; 0x01
 b4c:	40 83       	st	Z, r20
 b4e:	08 95       	ret

00000b50 <get_FLAG_datos_recibidos>:
 b50:	80 91 a1 05 	lds	r24, 0x05A1	; 0x8005a1 <FLAG_datos_recibidos>
 b54:	08 95       	ret

00000b56 <set_FLAG_datos_recibidos>:
 b56:	80 93 a1 05 	sts	0x05A1, r24	; 0x8005a1 <FLAG_datos_recibidos>
 b5a:	08 95       	ret

00000b5c <UART_Write_Char_To_Buffer>:
		// TX_UART did not respond  error
	//}
}

uint8_t UART_Write_Char_To_Buffer (uint8_t data)
{
 b5c:	cf 93       	push	r28
 b5e:	c8 2f       	mov	r28, r24
	{
		// Write buffer is full
		return ERROR_UART_FULL_BUFF;
	}*/
	
	if ((TX_buffer.index_escritura + 1) % BUFFER_TX_LEN == TX_buffer.index_lectura){
 b60:	40 91 9c 07 	lds	r20, 0x079C	; 0x80079c <TX_buffer+0x1f4>
 b64:	50 91 9d 07 	lds	r21, 0x079D	; 0x80079d <TX_buffer+0x1f5>
 b68:	fa 01       	movw	r30, r20
 b6a:	31 96       	adiw	r30, 0x01	; 1
 b6c:	9f 01       	movw	r18, r30
 b6e:	36 95       	lsr	r19
 b70:	27 95       	ror	r18
 b72:	36 95       	lsr	r19
 b74:	27 95       	ror	r18
 b76:	a5 ec       	ldi	r26, 0xC5	; 197
 b78:	b0 e2       	ldi	r27, 0x20	; 32
 b7a:	0e 94 b6 06 	call	0xd6c	; 0xd6c <__umulhisi3>
 b7e:	92 95       	swap	r25
 b80:	82 95       	swap	r24
 b82:	8f 70       	andi	r24, 0x0F	; 15
 b84:	89 27       	eor	r24, r25
 b86:	9f 70       	andi	r25, 0x0F	; 15
 b88:	89 27       	eor	r24, r25
 b8a:	64 ef       	ldi	r22, 0xF4	; 244
 b8c:	71 e0       	ldi	r23, 0x01	; 1
 b8e:	86 9f       	mul	r24, r22
 b90:	90 01       	movw	r18, r0
 b92:	87 9f       	mul	r24, r23
 b94:	30 0d       	add	r19, r0
 b96:	96 9f       	mul	r25, r22
 b98:	30 0d       	add	r19, r0
 b9a:	11 24       	eor	r1, r1
 b9c:	cf 01       	movw	r24, r30
 b9e:	82 1b       	sub	r24, r18
 ba0:	93 0b       	sbc	r25, r19
 ba2:	20 91 9e 07 	lds	r18, 0x079E	; 0x80079e <TX_buffer+0x1f6>
 ba6:	30 91 9f 07 	lds	r19, 0x079F	; 0x80079f <TX_buffer+0x1f7>
 baa:	82 17       	cp	r24, r18
 bac:	93 07       	cpc	r25, r19
 bae:	51 f0       	breq	.+20     	; 0xbc4 <UART_Write_Char_To_Buffer+0x68>
		//Buffer lleno
	}
	else{
		TX_buffer.data[TX_buffer.index_escritura] = data;
 bb0:	fa 01       	movw	r30, r20
 bb2:	e8 55       	subi	r30, 0x58	; 88
 bb4:	fa 4f       	sbci	r31, 0xFA	; 250
 bb6:	c0 83       	st	Z, r28
		TX_buffer.index_escritura = (TX_buffer.index_escritura+1)%BUFFER_TX_LEN;		
 bb8:	90 93 9d 07 	sts	0x079D, r25	; 0x80079d <TX_buffer+0x1f5>
 bbc:	80 93 9c 07 	sts	0x079C, r24	; 0x80079c <TX_buffer+0x1f4>
		SerialPort_TX_Interrupt_Enable();
 bc0:	0e 94 b7 04 	call	0x96e	; 0x96e <SerialPort_TX_Interrupt_Enable>
	
	}
}
 bc4:	cf 91       	pop	r28
 bc6:	08 95       	ret

00000bc8 <UART_Write_String_To_Buffer>:

// h

void UART_Write_String_To_Buffer(char* STR_PTR)
{
 bc8:	0f 93       	push	r16
 bca:	1f 93       	push	r17
 bcc:	cf 93       	push	r28
 bce:	8c 01       	movw	r16, r24
	uint8_t i = 0;
 bd0:	c0 e0       	ldi	r28, 0x00	; 0
	//SerialPort_TX_Interrupt_Disable();
	while ( STR_PTR [ i ] != '\0')
 bd2:	03 c0       	rjmp	.+6      	; 0xbda <UART_Write_String_To_Buffer+0x12>
	{
		UART_Write_Char_To_Buffer ( STR_PTR [ i ] );
 bd4:	0e 94 ae 05 	call	0xb5c	; 0xb5c <UART_Write_Char_To_Buffer>
		i++;
 bd8:	cf 5f       	subi	r28, 0xFF	; 255

void UART_Write_String_To_Buffer(char* STR_PTR)
{
	uint8_t i = 0;
	//SerialPort_TX_Interrupt_Disable();
	while ( STR_PTR [ i ] != '\0')
 bda:	f8 01       	movw	r30, r16
 bdc:	ec 0f       	add	r30, r28
 bde:	f1 1d       	adc	r31, r1
 be0:	80 81       	ld	r24, Z
 be2:	81 11       	cpse	r24, r1
 be4:	f7 cf       	rjmp	.-18     	; 0xbd4 <UART_Write_String_To_Buffer+0xc>
	{
		UART_Write_Char_To_Buffer ( STR_PTR [ i ] );
		i++;
	}
	UART_Write_Char_To_Buffer ('\r');
 be6:	8d e0       	ldi	r24, 0x0D	; 13
 be8:	0e 94 ae 05 	call	0xb5c	; 0xb5c <UART_Write_Char_To_Buffer>
	UART_Write_Char_To_Buffer ('\n');
 bec:	8a e0       	ldi	r24, 0x0A	; 10
 bee:	0e 94 ae 05 	call	0xb5c	; 0xb5c <UART_Write_Char_To_Buffer>
	SerialPort_TX_Interrupt_Enable();
 bf2:	0e 94 b7 04 	call	0x96e	; 0x96e <SerialPort_TX_Interrupt_Enable>
	
}
 bf6:	cf 91       	pop	r28
 bf8:	1f 91       	pop	r17
 bfa:	0f 91       	pop	r16
 bfc:	08 95       	ret

00000bfe <__vector_18>:
Buffer_TX TX_buffer;
Buffer_RX RX_buffer;

static uint8_t FLAG_datos_recibidos = 0;

ISR(USART_RX_vect){
 bfe:	1f 92       	push	r1
 c00:	0f 92       	push	r0
 c02:	0f b6       	in	r0, 0x3f	; 63
 c04:	0f 92       	push	r0
 c06:	11 24       	eor	r1, r1
 c08:	2f 93       	push	r18
 c0a:	3f 93       	push	r19
 c0c:	4f 93       	push	r20
 c0e:	5f 93       	push	r21
 c10:	6f 93       	push	r22
 c12:	7f 93       	push	r23
 c14:	8f 93       	push	r24
 c16:	9f 93       	push	r25
 c18:	af 93       	push	r26
 c1a:	bf 93       	push	r27
 c1c:	ef 93       	push	r30
 c1e:	ff 93       	push	r31
 c20:	cf 93       	push	r28
 c22:	df 93       	push	r29
 c24:	cd b7       	in	r28, 0x3d	; 61
 c26:	de b7       	in	r29, 0x3e	; 62
 c28:	c0 55       	subi	r28, 0x50	; 80
 c2a:	d1 09       	sbc	r29, r1
 c2c:	de bf       	out	0x3e, r29	; 62
 c2e:	cd bf       	out	0x3d, r28	; 61
		FLAG_datos_recibidos=1;
	}
	inc_RX_index_escritura(); // index_escritura++
*/
	//UART_Write_String_To_Buffer("Entre a la interrupcion");
	set_RX_data_UDR0(); // BufferRX[index_escritura]
 c30:	0e 94 60 05 	call	0xac0	; 0xac0 <set_RX_data_UDR0>
	if ((RX_buffer.data[RX_buffer.index_escritura]) == '\n')
 c34:	e0 91 f0 07 	lds	r30, 0x07F0	; 0x8007f0 <RX_buffer+0x50>
 c38:	f0 91 f1 07 	lds	r31, 0x07F1	; 0x8007f1 <RX_buffer+0x51>
 c3c:	e0 56       	subi	r30, 0x60	; 96
 c3e:	f8 4f       	sbci	r31, 0xF8	; 248
 c40:	80 81       	ld	r24, Z
 c42:	8a 30       	cpi	r24, 0x0A	; 10
 c44:	e9 f5       	brne	.+122    	; 0xcc0 <__vector_18+0xc2>
	{
		//UART_Write_String_To_Buffer("ENCONTRE UN /N");
		//UART_Write_String_To_Buffer("PRIMER CHEQUEO");
	
		//set_RX_data('\0');
		set_FLAG_datos_recibidos(1);
 c46:	81 e0       	ldi	r24, 0x01	; 1
 c48:	0e 94 ab 05 	call	0xb56	; 0xb56 <set_FLAG_datos_recibidos>
		else{
			UART_Write_String_To_Buffer("Flag en 0");
			
		}*/
		
		if (get_RX_data_index_lectura() == 'S' || get_RX_data_index_lectura()=='R') {
 c4c:	0e 94 55 05 	call	0xaaa	; 0xaaa <get_RX_data_index_lectura>
 c50:	83 35       	cpi	r24, 0x53	; 83
 c52:	11 f0       	breq	.+4      	; 0xc58 <__vector_18+0x5a>
 c54:	82 35       	cpi	r24, 0x52	; 82
 c56:	a1 f5       	brne	.+104    	; 0xcc0 <__vector_18+0xc2>
			//UART_Write_String_To_Buffer("La primera letra es una S o una R");
			uint8_t substring[BUFFER_RX_LEN];
			create_substring(get_RX_data(), substring);
 c58:	0e 94 5d 05 	call	0xaba	; 0xaba <get_RX_data>
 c5c:	be 01       	movw	r22, r28
 c5e:	6f 5f       	subi	r22, 0xFF	; 255
 c60:	7f 4f       	sbci	r23, 0xFF	; 255
 c62:	0e 94 dd 03 	call	0x7ba	; 0x7ba <create_substring>
			UART_Write_String_To_Buffer(substring);
 c66:	ce 01       	movw	r24, r28
 c68:	01 96       	adiw	r24, 0x01	; 1
 c6a:	0e 94 e4 05 	call	0xbc8	; 0xbc8 <UART_Write_String_To_Buffer>
			
			if (strcmp(substring, "STOP") == 0){
 c6e:	68 ee       	ldi	r22, 0xE8	; 232
 c70:	73 e0       	ldi	r23, 0x03	; 3
 c72:	ce 01       	movw	r24, r28
 c74:	01 96       	adiw	r24, 0x01	; 1
 c76:	0e 94 e7 06 	call	0xdce	; 0xdce <strcmp>
 c7a:	89 2b       	or	r24, r25
 c7c:	51 f4       	brne	.+20     	; 0xc92 <__vector_18+0x94>
				stop_song();
 c7e:	0e 94 a4 00 	call	0x148	; 0x148 <stop_song>
				UART_Write_String_To_Buffer("Stopped song\n");
 c82:	8d ee       	ldi	r24, 0xED	; 237
 c84:	93 e0       	ldi	r25, 0x03	; 3
 c86:	0e 94 e4 05 	call	0xbc8	; 0xbc8 <UART_Write_String_To_Buffer>
				set_FLAG_datos_recibidos(0);
 c8a:	80 e0       	ldi	r24, 0x00	; 0
 c8c:	0e 94 ab 05 	call	0xb56	; 0xb56 <set_FLAG_datos_recibidos>
 c90:	17 c0       	rjmp	.+46     	; 0xcc0 <__vector_18+0xc2>
			}
			else if (strcmp(substring, "RESET") == 0){
 c92:	6e e4       	ldi	r22, 0x4E	; 78
 c94:	74 e0       	ldi	r23, 0x04	; 4
 c96:	ce 01       	movw	r24, r28
 c98:	01 96       	adiw	r24, 0x01	; 1
 c9a:	0e 94 e7 06 	call	0xdce	; 0xdce <strcmp>
 c9e:	89 2b       	or	r24, r25
 ca0:	79 f4       	brne	.+30     	; 0xcc0 <__vector_18+0xc2>
				UART_Write_String_To_Buffer("RESETTING system\n");
 ca2:	84 e5       	ldi	r24, 0x54	; 84
 ca4:	94 e0       	ldi	r25, 0x04	; 4
 ca6:	0e 94 e4 05 	call	0xbc8	; 0xbc8 <UART_Write_String_To_Buffer>
				stop_song();
 caa:	0e 94 a4 00 	call	0x148	; 0x148 <stop_song>
				set_song(0);
 cae:	80 e0       	ldi	r24, 0x00	; 0
 cb0:	90 e0       	ldi	r25, 0x00	; 0
 cb2:	0e 94 5d 00 	call	0xba	; 0xba <set_song>
		
				MENU_display_welcome();
 cb6:	0e 94 d0 03 	call	0x7a0	; 0x7a0 <MENU_display_welcome>
				set_FLAG_datos_recibidos(0);
 cba:	80 e0       	ldi	r24, 0x00	; 0
 cbc:	0e 94 ab 05 	call	0xb56	; 0xb56 <set_FLAG_datos_recibidos>
			UART_Write_String_To_Buffer("Flag en 0");
			
		}*/
	}
	
	inc_RX_index_escritura();
 cc0:	0e 94 6a 05 	call	0xad4	; 0xad4 <inc_RX_index_escritura>
}
 cc4:	c0 5b       	subi	r28, 0xB0	; 176
 cc6:	df 4f       	sbci	r29, 0xFF	; 255
 cc8:	0f b6       	in	r0, 0x3f	; 63
 cca:	f8 94       	cli
 ccc:	de bf       	out	0x3e, r29	; 62
 cce:	0f be       	out	0x3f, r0	; 63
 cd0:	cd bf       	out	0x3d, r28	; 61
 cd2:	df 91       	pop	r29
 cd4:	cf 91       	pop	r28
 cd6:	ff 91       	pop	r31
 cd8:	ef 91       	pop	r30
 cda:	bf 91       	pop	r27
 cdc:	af 91       	pop	r26
 cde:	9f 91       	pop	r25
 ce0:	8f 91       	pop	r24
 ce2:	7f 91       	pop	r23
 ce4:	6f 91       	pop	r22
 ce6:	5f 91       	pop	r21
 ce8:	4f 91       	pop	r20
 cea:	3f 91       	pop	r19
 cec:	2f 91       	pop	r18
 cee:	0f 90       	pop	r0
 cf0:	0f be       	out	0x3f, r0	; 63
 cf2:	0f 90       	pop	r0
 cf4:	1f 90       	pop	r1
 cf6:	18 95       	reti

00000cf8 <UART_Write_String_To_Buffer_No_NewLine>:
	SerialPort_TX_Interrupt_Enable();
	
}

void UART_Write_String_To_Buffer_No_NewLine(char* STR_PTR)
{
 cf8:	0f 93       	push	r16
 cfa:	1f 93       	push	r17
 cfc:	cf 93       	push	r28
 cfe:	8c 01       	movw	r16, r24
	uint8_t i = 0;
 d00:	c0 e0       	ldi	r28, 0x00	; 0
	//SerialPort_TX_Interrupt_Disable();
	while ( STR_PTR [ i ] != '\0')
 d02:	03 c0       	rjmp	.+6      	; 0xd0a <UART_Write_String_To_Buffer_No_NewLine+0x12>
	{
		UART_Write_Char_To_Buffer ( STR_PTR [ i ] );
 d04:	0e 94 ae 05 	call	0xb5c	; 0xb5c <UART_Write_Char_To_Buffer>
		i++;
 d08:	cf 5f       	subi	r28, 0xFF	; 255

void UART_Write_String_To_Buffer_No_NewLine(char* STR_PTR)
{
	uint8_t i = 0;
	//SerialPort_TX_Interrupt_Disable();
	while ( STR_PTR [ i ] != '\0')
 d0a:	f8 01       	movw	r30, r16
 d0c:	ec 0f       	add	r30, r28
 d0e:	f1 1d       	adc	r31, r1
 d10:	80 81       	ld	r24, Z
 d12:	81 11       	cpse	r24, r1
 d14:	f7 cf       	rjmp	.-18     	; 0xd04 <UART_Write_String_To_Buffer_No_NewLine+0xc>
	{
		UART_Write_Char_To_Buffer ( STR_PTR [ i ] );
		i++;
	}
	SerialPort_TX_Interrupt_Enable();
 d16:	0e 94 b7 04 	call	0x96e	; 0x96e <SerialPort_TX_Interrupt_Enable>
}
 d1a:	cf 91       	pop	r28
 d1c:	1f 91       	pop	r17
 d1e:	0f 91       	pop	r16
 d20:	08 95       	ret

00000d22 <__divmodsi4>:
 d22:	05 2e       	mov	r0, r21
 d24:	97 fb       	bst	r25, 7
 d26:	1e f4       	brtc	.+6      	; 0xd2e <__divmodsi4+0xc>
 d28:	00 94       	com	r0
 d2a:	0e 94 a8 06 	call	0xd50	; 0xd50 <__negsi2>
 d2e:	57 fd       	sbrc	r21, 7
 d30:	07 d0       	rcall	.+14     	; 0xd40 <__divmodsi4_neg2>
 d32:	0e 94 c5 06 	call	0xd8a	; 0xd8a <__udivmodsi4>
 d36:	07 fc       	sbrc	r0, 7
 d38:	03 d0       	rcall	.+6      	; 0xd40 <__divmodsi4_neg2>
 d3a:	4e f4       	brtc	.+18     	; 0xd4e <__divmodsi4_exit>
 d3c:	0c 94 a8 06 	jmp	0xd50	; 0xd50 <__negsi2>

00000d40 <__divmodsi4_neg2>:
 d40:	50 95       	com	r21
 d42:	40 95       	com	r20
 d44:	30 95       	com	r19
 d46:	21 95       	neg	r18
 d48:	3f 4f       	sbci	r19, 0xFF	; 255
 d4a:	4f 4f       	sbci	r20, 0xFF	; 255
 d4c:	5f 4f       	sbci	r21, 0xFF	; 255

00000d4e <__divmodsi4_exit>:
 d4e:	08 95       	ret

00000d50 <__negsi2>:
 d50:	90 95       	com	r25
 d52:	80 95       	com	r24
 d54:	70 95       	com	r23
 d56:	61 95       	neg	r22
 d58:	7f 4f       	sbci	r23, 0xFF	; 255
 d5a:	8f 4f       	sbci	r24, 0xFF	; 255
 d5c:	9f 4f       	sbci	r25, 0xFF	; 255
 d5e:	08 95       	ret

00000d60 <__tablejump2__>:
 d60:	ee 0f       	add	r30, r30
 d62:	ff 1f       	adc	r31, r31
 d64:	05 90       	lpm	r0, Z+
 d66:	f4 91       	lpm	r31, Z
 d68:	e0 2d       	mov	r30, r0
 d6a:	09 94       	ijmp

00000d6c <__umulhisi3>:
 d6c:	a2 9f       	mul	r26, r18
 d6e:	b0 01       	movw	r22, r0
 d70:	b3 9f       	mul	r27, r19
 d72:	c0 01       	movw	r24, r0
 d74:	a3 9f       	mul	r26, r19
 d76:	70 0d       	add	r23, r0
 d78:	81 1d       	adc	r24, r1
 d7a:	11 24       	eor	r1, r1
 d7c:	91 1d       	adc	r25, r1
 d7e:	b2 9f       	mul	r27, r18
 d80:	70 0d       	add	r23, r0
 d82:	81 1d       	adc	r24, r1
 d84:	11 24       	eor	r1, r1
 d86:	91 1d       	adc	r25, r1
 d88:	08 95       	ret

00000d8a <__udivmodsi4>:
 d8a:	a1 e2       	ldi	r26, 0x21	; 33
 d8c:	1a 2e       	mov	r1, r26
 d8e:	aa 1b       	sub	r26, r26
 d90:	bb 1b       	sub	r27, r27
 d92:	fd 01       	movw	r30, r26
 d94:	0d c0       	rjmp	.+26     	; 0xdb0 <__udivmodsi4_ep>

00000d96 <__udivmodsi4_loop>:
 d96:	aa 1f       	adc	r26, r26
 d98:	bb 1f       	adc	r27, r27
 d9a:	ee 1f       	adc	r30, r30
 d9c:	ff 1f       	adc	r31, r31
 d9e:	a2 17       	cp	r26, r18
 da0:	b3 07       	cpc	r27, r19
 da2:	e4 07       	cpc	r30, r20
 da4:	f5 07       	cpc	r31, r21
 da6:	20 f0       	brcs	.+8      	; 0xdb0 <__udivmodsi4_ep>
 da8:	a2 1b       	sub	r26, r18
 daa:	b3 0b       	sbc	r27, r19
 dac:	e4 0b       	sbc	r30, r20
 dae:	f5 0b       	sbc	r31, r21

00000db0 <__udivmodsi4_ep>:
 db0:	66 1f       	adc	r22, r22
 db2:	77 1f       	adc	r23, r23
 db4:	88 1f       	adc	r24, r24
 db6:	99 1f       	adc	r25, r25
 db8:	1a 94       	dec	r1
 dba:	69 f7       	brne	.-38     	; 0xd96 <__udivmodsi4_loop>
 dbc:	60 95       	com	r22
 dbe:	70 95       	com	r23
 dc0:	80 95       	com	r24
 dc2:	90 95       	com	r25
 dc4:	9b 01       	movw	r18, r22
 dc6:	ac 01       	movw	r20, r24
 dc8:	bd 01       	movw	r22, r26
 dca:	cf 01       	movw	r24, r30
 dcc:	08 95       	ret

00000dce <strcmp>:
 dce:	fb 01       	movw	r30, r22
 dd0:	dc 01       	movw	r26, r24
 dd2:	8d 91       	ld	r24, X+
 dd4:	01 90       	ld	r0, Z+
 dd6:	80 19       	sub	r24, r0
 dd8:	01 10       	cpse	r0, r1
 dda:	d9 f3       	breq	.-10     	; 0xdd2 <strcmp+0x4>
 ddc:	99 0b       	sbc	r25, r25
 dde:	08 95       	ret

00000de0 <strncmp>:
 de0:	fb 01       	movw	r30, r22
 de2:	dc 01       	movw	r26, r24
 de4:	41 50       	subi	r20, 0x01	; 1
 de6:	50 40       	sbci	r21, 0x00	; 0
 de8:	30 f0       	brcs	.+12     	; 0xdf6 <strncmp+0x16>
 dea:	8d 91       	ld	r24, X+
 dec:	01 90       	ld	r0, Z+
 dee:	80 19       	sub	r24, r0
 df0:	19 f4       	brne	.+6      	; 0xdf8 <strncmp+0x18>
 df2:	00 20       	and	r0, r0
 df4:	b9 f7       	brne	.-18     	; 0xde4 <strncmp+0x4>
 df6:	88 1b       	sub	r24, r24
 df8:	99 0b       	sbc	r25, r25
 dfa:	08 95       	ret

00000dfc <_exit>:
 dfc:	f8 94       	cli

00000dfe <__stop_program>:
 dfe:	ff cf       	rjmp	.-2      	; 0xdfe <__stop_program>
